

Microchip MPLAB XC8 Assembler V3.00 build 20241204225717 
                                                                                               Wed Jun 25 17:21:18 2025

Microchip MPLAB XC8 C Compiler v3.00 (Free license) build 20241204225717 Og1 
     1                           	processor	16F877A
     2                           	pagewidth 120
     3                           	opt	flic
     4                           	psect	idataCOMMON,global,class=CODE,space=0,delta=2,noexec
     5                           	psect	idataBANK0,global,class=CODE,space=0,delta=2,noexec
     6                           	psect	idataBANK1,global,class=CODE,space=0,delta=2,noexec
     7                           	psect	strings,global,class=STRING,space=0,delta=2,noexec
     8                           	psect	stringtext,global,reloc=256,class=STRCODE,space=0,delta=2,noexec
     9                           	psect	cinit,global,class=CODE,space=0,merge=1,delta=2
    10                           	psect	bssCOMMON,global,class=COMMON,space=1,delta=1,noexec
    11                           	psect	dataCOMMON,global,class=COMMON,space=1,delta=1,noexec
    12                           	psect	bssBANK0,global,class=BANK0,space=1,delta=1,noexec
    13                           	psect	dataBANK0,global,class=BANK0,space=1,delta=1,noexec
    14                           	psect	bssBANK1,global,class=BANK1,space=1,delta=1,noexec
    15                           	psect	dataBANK1,global,class=BANK1,space=1,delta=1,noexec
    16                           	psect	inittext,global,class=CODE,space=0,delta=2
    17                           	psect	cstackCOMMON,global,class=COMMON,space=1,delta=1,noexec
    18                           	psect	cstackBANK0,global,class=BANK0,space=1,delta=1,noexec
    19                           	psect	maintext,global,class=CODE,space=0,split=1,delta=2
    20                           	psect	text1,local,class=CODE,space=0,merge=1,delta=2
    21                           	psect	text2,local,class=CODE,space=0,merge=1,delta=2
    22                           	psect	text3,local,class=CODE,space=0,merge=1,delta=2
    23                           	psect	text4,local,class=CODE,space=0,merge=1,delta=2
    24                           	psect	text5,local,class=CODE,space=0,merge=1,delta=2
    25                           	psect	text6,local,class=CODE,space=0,merge=1,delta=2
    26                           	psect	text7,local,class=CODE,space=0,merge=1,delta=2,group=1
    27                           	psect	text8,local,class=CODE,space=0,merge=1,delta=2,group=1
    28                           	psect	text9,local,class=CODE,space=0,merge=1,delta=2,group=1
    29                           	psect	text10,local,class=CODE,space=0,merge=1,delta=2,group=1
    30                           	psect	text11,local,class=CODE,space=0,merge=1,delta=2,group=1
    31                           	psect	text12,local,class=CODE,space=0,merge=1,delta=2,group=1
    32                           	psect	text13,local,class=CODE,space=0,merge=1,delta=2,group=1
    33                           	psect	text14,local,class=CODE,space=0,merge=1,delta=2,group=1
    34                           	psect	text15,local,class=CODE,space=0,merge=1,delta=2,group=1
    35                           	psect	text16,local,class=CODE,space=0,merge=1,delta=2,group=1
    36                           	psect	text17,local,class=CODE,space=0,merge=1,delta=2
    37                           	psect	text18,local,class=CODE,space=0,merge=1,delta=2
    38                           	psect	text19,local,class=CODE,space=0,merge=1,delta=2
    39                           	psect	text20,local,class=CODE,space=0,merge=1,delta=2
    40                           	psect	text21,local,class=CODE,space=0,merge=1,delta=2
    41                           	psect	text22,local,class=CODE,space=0,merge=1,delta=2
    42                           	psect	text23,local,class=CODE,space=0,merge=1,delta=2
    43                           	psect	text24,local,class=CODE,space=0,merge=1,delta=2
    44                           	psect	text25,local,class=CODE,space=0,merge=1,delta=2
    45                           	psect	text26,local,class=CODE,space=0,merge=1,delta=2
    46                           	psect	text27,local,class=CODE,space=0,merge=1,delta=2
    47                           	psect	intentry,global,class=CODE,space=0,delta=2
    48                           	psect	config,global,abs,ovrld,class=CONFIG,space=4,delta=2,noexec
    49                           	dabs	1,0x7E,2
    50     0000                     
    51                           ; Generated 12/10/2023 GMT
    52                           ; 
    53                           ; Copyright © 2023, Microchip Technology Inc. and its subsidiaries ("Microchip")
    54                           ; All rights reserved.
    55                           ; 
    56                           ; This software is developed by Microchip Technology Inc. and its subsidiaries ("Microch
      +                          ip").
    57                           ; 
    58                           ; Redistribution and use in source and binary forms, with or without modification, are
    59                           ; permitted provided that the following conditions are met:
    60                           ; 
    61                           ;     1. Redistributions of source code must retain the above copyright notice, this lis
      +                          t of
    62                           ;        conditions and the following disclaimer.
    63                           ; 
    64                           ;     2. Redistributions in binary form must reproduce the above copyright notice, this 
      +                          list
    65                           ;        of conditions and the following disclaimer in the documentation and/or other
    66                           ;        materials provided with the distribution. Publication is not required when
    67                           ;        this file is used in an embedded application.
    68                           ; 
    69                           ;     3. Microchip's name may not be used to endorse or promote products derived from th
      +                          is
    70                           ;        software without specific prior written permission.
    71                           ; 
    72                           ; THIS SOFTWARE IS PROVIDED BY MICROCHIP "AS IS" AND ANY EXPRESS OR IMPLIED WARRANTIES,
    73                           ; INCLUDING, BUT NOT LIMITED TO, THE IMPLIED WARRANTIES OF MERCHANTABILITY AND FITNESS F
      +                          OR
    74                           ; PURPOSE ARE DISCLAIMED.  IN NO EVENT SHALL MICROCHIP BE LIABLE FOR ANY DIRECT, INDIREC
      +                          T,
    75                           ; INCIDENTAL, SPECIAL, EXEMPLARY, OR CONSEQUENTIAL DAMAGES (INCLUDING BUT NOT LIMITED TO
    76                           ; PROCUREMENT OF SUBSTITUTE GOODS OR SERVICES; LOSS OF USE, DATA OR PROFITS; OR BUSINESS
    77                           ; INTERRUPTION) HOWSOEVER CAUSED AND ON ANY THEORY OF LIABILITY, WHETHER IN CONTRACT, ST
      +                          RICT
    78                           ; LIABILITY, OR TORT (INCLUDING NEGLIGENCE OR OTHERWISE) ARISING IN ANY WAY OUT OF THE U
      +                          SE OF
    79                           ; THIS SOFTWARE, EVEN IF ADVISED OF THE POSSIBILITY OF SUCH DAMAGE.
    80                           ; 
    81                           ; 
    82                           ; Code-generator required, PIC16F877A Definitions
    83                           ; 
    84                           ; SFR Addresses
    85     0004                     fsr             equ	4
    86     0004                     fsr0            equ	4
    87     0000                     indf            equ	0
    88     0000                     indf0           equ	0
    89     0002                     pc              equ	2
    90     0002                     pcl             equ	2
    91     000A                     pclath          equ	10
    92     0003                     status          equ	3
    93     0000                     INDF            equ	0	;# 
    94     0001                     TMR0            equ	1	;# 
    95     0002                     PCL             equ	2	;# 
    96     0003                     STATUS          equ	3	;# 
    97     0004                     FSR             equ	4	;# 
    98     0005                     PORTA           equ	5	;# 
    99     0006                     PORTB           equ	6	;# 
   100     0007                     PORTC           equ	7	;# 
   101     0008                     PORTD           equ	8	;# 
   102     0009                     PORTE           equ	9	;# 
   103     000A                     PCLATH          equ	10	;# 
   104     000B                     INTCON          equ	11	;# 
   105     000C                     PIR1            equ	12	;# 
   106     000D                     PIR2            equ	13	;# 
   107     000E                     TMR1            equ	14	;# 
   108     000E                     TMR1L           equ	14	;# 
   109     000F                     TMR1H           equ	15	;# 
   110     0010                     T1CON           equ	16	;# 
   111     0011                     TMR2            equ	17	;# 
   112     0012                     T2CON           equ	18	;# 
   113     0013                     SSPBUF          equ	19	;# 
   114     0014                     SSPCON          equ	20	;# 
   115     0015                     CCPR1           equ	21	;# 
   116     0015                     CCPR1L          equ	21	;# 
   117     0016                     CCPR1H          equ	22	;# 
   118     0017                     CCP1CON         equ	23	;# 
   119     0018                     RCSTA           equ	24	;# 
   120     0019                     TXREG           equ	25	;# 
   121     001A                     RCREG           equ	26	;# 
   122     001B                     CCPR2           equ	27	;# 
   123     001B                     CCPR2L          equ	27	;# 
   124     001C                     CCPR2H          equ	28	;# 
   125     001D                     CCP2CON         equ	29	;# 
   126     001E                     ADRESH          equ	30	;# 
   127     001F                     ADCON0          equ	31	;# 
   128     0081                     OPTION_REG      equ	129	;# 
   129     0085                     TRISA           equ	133	;# 
   130     0086                     TRISB           equ	134	;# 
   131     0087                     TRISC           equ	135	;# 
   132     0088                     TRISD           equ	136	;# 
   133     0089                     TRISE           equ	137	;# 
   134     008C                     PIE1            equ	140	;# 
   135     008D                     PIE2            equ	141	;# 
   136     008E                     PCON            equ	142	;# 
   137     0091                     SSPCON2         equ	145	;# 
   138     0092                     PR2             equ	146	;# 
   139     0093                     SSPADD          equ	147	;# 
   140     0094                     SSPSTAT         equ	148	;# 
   141     0098                     TXSTA           equ	152	;# 
   142     0099                     SPBRG           equ	153	;# 
   143     009C                     CMCON           equ	156	;# 
   144     009D                     CVRCON          equ	157	;# 
   145     009E                     ADRESL          equ	158	;# 
   146     009F                     ADCON1          equ	159	;# 
   147     010C                     EEDATA          equ	268	;# 
   148     010D                     EEADR           equ	269	;# 
   149     010E                     EEDATH          equ	270	;# 
   150     010F                     EEADRH          equ	271	;# 
   151     018C                     EECON1          equ	396	;# 
   152     018D                     EECON2          equ	397	;# 
   153     0000                     INDF            equ	0	;# 
   154     0001                     TMR0            equ	1	;# 
   155     0002                     PCL             equ	2	;# 
   156     0003                     STATUS          equ	3	;# 
   157     0004                     FSR             equ	4	;# 
   158     0005                     PORTA           equ	5	;# 
   159     0006                     PORTB           equ	6	;# 
   160     0007                     PORTC           equ	7	;# 
   161     0008                     PORTD           equ	8	;# 
   162     0009                     PORTE           equ	9	;# 
   163     000A                     PCLATH          equ	10	;# 
   164     000B                     INTCON          equ	11	;# 
   165     000C                     PIR1            equ	12	;# 
   166     000D                     PIR2            equ	13	;# 
   167     000E                     TMR1            equ	14	;# 
   168     000E                     TMR1L           equ	14	;# 
   169     000F                     TMR1H           equ	15	;# 
   170     0010                     T1CON           equ	16	;# 
   171     0011                     TMR2            equ	17	;# 
   172     0012                     T2CON           equ	18	;# 
   173     0013                     SSPBUF          equ	19	;# 
   174     0014                     SSPCON          equ	20	;# 
   175     0015                     CCPR1           equ	21	;# 
   176     0015                     CCPR1L          equ	21	;# 
   177     0016                     CCPR1H          equ	22	;# 
   178     0017                     CCP1CON         equ	23	;# 
   179     0018                     RCSTA           equ	24	;# 
   180     0019                     TXREG           equ	25	;# 
   181     001A                     RCREG           equ	26	;# 
   182     001B                     CCPR2           equ	27	;# 
   183     001B                     CCPR2L          equ	27	;# 
   184     001C                     CCPR2H          equ	28	;# 
   185     001D                     CCP2CON         equ	29	;# 
   186     001E                     ADRESH          equ	30	;# 
   187     001F                     ADCON0          equ	31	;# 
   188     0081                     OPTION_REG      equ	129	;# 
   189     0085                     TRISA           equ	133	;# 
   190     0086                     TRISB           equ	134	;# 
   191     0087                     TRISC           equ	135	;# 
   192     0088                     TRISD           equ	136	;# 
   193     0089                     TRISE           equ	137	;# 
   194     008C                     PIE1            equ	140	;# 
   195     008D                     PIE2            equ	141	;# 
   196     008E                     PCON            equ	142	;# 
   197     0091                     SSPCON2         equ	145	;# 
   198     0092                     PR2             equ	146	;# 
   199     0093                     SSPADD          equ	147	;# 
   200     0094                     SSPSTAT         equ	148	;# 
   201     0098                     TXSTA           equ	152	;# 
   202     0099                     SPBRG           equ	153	;# 
   203     009C                     CMCON           equ	156	;# 
   204     009D                     CVRCON          equ	157	;# 
   205     009E                     ADRESL          equ	158	;# 
   206     009F                     ADCON1          equ	159	;# 
   207     010C                     EEDATA          equ	268	;# 
   208     010D                     EEADR           equ	269	;# 
   209     010E                     EEDATH          equ	270	;# 
   210     010F                     EEADRH          equ	271	;# 
   211     018C                     EECON1          equ	396	;# 
   212     018D                     EECON2          equ	397	;# 
   213     0000                     INDF            equ	0	;# 
   214     0001                     TMR0            equ	1	;# 
   215     0002                     PCL             equ	2	;# 
   216     0003                     STATUS          equ	3	;# 
   217     0004                     FSR             equ	4	;# 
   218     0005                     PORTA           equ	5	;# 
   219     0006                     PORTB           equ	6	;# 
   220     0007                     PORTC           equ	7	;# 
   221     0008                     PORTD           equ	8	;# 
   222     0009                     PORTE           equ	9	;# 
   223     000A                     PCLATH          equ	10	;# 
   224     000B                     INTCON          equ	11	;# 
   225     000C                     PIR1            equ	12	;# 
   226     000D                     PIR2            equ	13	;# 
   227     000E                     TMR1            equ	14	;# 
   228     000E                     TMR1L           equ	14	;# 
   229     000F                     TMR1H           equ	15	;# 
   230     0010                     T1CON           equ	16	;# 
   231     0011                     TMR2            equ	17	;# 
   232     0012                     T2CON           equ	18	;# 
   233     0013                     SSPBUF          equ	19	;# 
   234     0014                     SSPCON          equ	20	;# 
   235     0015                     CCPR1           equ	21	;# 
   236     0015                     CCPR1L          equ	21	;# 
   237     0016                     CCPR1H          equ	22	;# 
   238     0017                     CCP1CON         equ	23	;# 
   239     0018                     RCSTA           equ	24	;# 
   240     0019                     TXREG           equ	25	;# 
   241     001A                     RCREG           equ	26	;# 
   242     001B                     CCPR2           equ	27	;# 
   243     001B                     CCPR2L          equ	27	;# 
   244     001C                     CCPR2H          equ	28	;# 
   245     001D                     CCP2CON         equ	29	;# 
   246     001E                     ADRESH          equ	30	;# 
   247     001F                     ADCON0          equ	31	;# 
   248     0081                     OPTION_REG      equ	129	;# 
   249     0085                     TRISA           equ	133	;# 
   250     0086                     TRISB           equ	134	;# 
   251     0087                     TRISC           equ	135	;# 
   252     0088                     TRISD           equ	136	;# 
   253     0089                     TRISE           equ	137	;# 
   254     008C                     PIE1            equ	140	;# 
   255     008D                     PIE2            equ	141	;# 
   256     008E                     PCON            equ	142	;# 
   257     0091                     SSPCON2         equ	145	;# 
   258     0092                     PR2             equ	146	;# 
   259     0093                     SSPADD          equ	147	;# 
   260     0094                     SSPSTAT         equ	148	;# 
   261     0098                     TXSTA           equ	152	;# 
   262     0099                     SPBRG           equ	153	;# 
   263     009C                     CMCON           equ	156	;# 
   264     009D                     CVRCON          equ	157	;# 
   265     009E                     ADRESL          equ	158	;# 
   266     009F                     ADCON1          equ	159	;# 
   267     010C                     EEDATA          equ	268	;# 
   268     010D                     EEADR           equ	269	;# 
   269     010E                     EEDATH          equ	270	;# 
   270     010F                     EEADRH          equ	271	;# 
   271     018C                     EECON1          equ	396	;# 
   272     018D                     EECON2          equ	397	;# 
   273     0000                     INDF            equ	0	;# 
   274     0001                     TMR0            equ	1	;# 
   275     0002                     PCL             equ	2	;# 
   276     0003                     STATUS          equ	3	;# 
   277     0004                     FSR             equ	4	;# 
   278     0005                     PORTA           equ	5	;# 
   279     0006                     PORTB           equ	6	;# 
   280     0007                     PORTC           equ	7	;# 
   281     0008                     PORTD           equ	8	;# 
   282     0009                     PORTE           equ	9	;# 
   283     000A                     PCLATH          equ	10	;# 
   284     000B                     INTCON          equ	11	;# 
   285     000C                     PIR1            equ	12	;# 
   286     000D                     PIR2            equ	13	;# 
   287     000E                     TMR1            equ	14	;# 
   288     000E                     TMR1L           equ	14	;# 
   289     000F                     TMR1H           equ	15	;# 
   290     0010                     T1CON           equ	16	;# 
   291     0011                     TMR2            equ	17	;# 
   292     0012                     T2CON           equ	18	;# 
   293     0013                     SSPBUF          equ	19	;# 
   294     0014                     SSPCON          equ	20	;# 
   295     0015                     CCPR1           equ	21	;# 
   296     0015                     CCPR1L          equ	21	;# 
   297     0016                     CCPR1H          equ	22	;# 
   298     0017                     CCP1CON         equ	23	;# 
   299     0018                     RCSTA           equ	24	;# 
   300     0019                     TXREG           equ	25	;# 
   301     001A                     RCREG           equ	26	;# 
   302     001B                     CCPR2           equ	27	;# 
   303     001B                     CCPR2L          equ	27	;# 
   304     001C                     CCPR2H          equ	28	;# 
   305     001D                     CCP2CON         equ	29	;# 
   306     001E                     ADRESH          equ	30	;# 
   307     001F                     ADCON0          equ	31	;# 
   308     0081                     OPTION_REG      equ	129	;# 
   309     0085                     TRISA           equ	133	;# 
   310     0086                     TRISB           equ	134	;# 
   311     0087                     TRISC           equ	135	;# 
   312     0088                     TRISD           equ	136	;# 
   313     0089                     TRISE           equ	137	;# 
   314     008C                     PIE1            equ	140	;# 
   315     008D                     PIE2            equ	141	;# 
   316     008E                     PCON            equ	142	;# 
   317     0091                     SSPCON2         equ	145	;# 
   318     0092                     PR2             equ	146	;# 
   319     0093                     SSPADD          equ	147	;# 
   320     0094                     SSPSTAT         equ	148	;# 
   321     0098                     TXSTA           equ	152	;# 
   322     0099                     SPBRG           equ	153	;# 
   323     009C                     CMCON           equ	156	;# 
   324     009D                     CVRCON          equ	157	;# 
   325     009E                     ADRESL          equ	158	;# 
   326     009F                     ADCON1          equ	159	;# 
   327     010C                     EEDATA          equ	268	;# 
   328     010D                     EEADR           equ	269	;# 
   329     010E                     EEDATH          equ	270	;# 
   330     010F                     EEADRH          equ	271	;# 
   331     018C                     EECON1          equ	396	;# 
   332     018D                     EECON2          equ	397	;# 
   333     0000                     INDF            equ	0	;# 
   334     0001                     TMR0            equ	1	;# 
   335     0002                     PCL             equ	2	;# 
   336     0003                     STATUS          equ	3	;# 
   337     0004                     FSR             equ	4	;# 
   338     0005                     PORTA           equ	5	;# 
   339     0006                     PORTB           equ	6	;# 
   340     0007                     PORTC           equ	7	;# 
   341     0008                     PORTD           equ	8	;# 
   342     0009                     PORTE           equ	9	;# 
   343     000A                     PCLATH          equ	10	;# 
   344     000B                     INTCON          equ	11	;# 
   345     000C                     PIR1            equ	12	;# 
   346     000D                     PIR2            equ	13	;# 
   347     000E                     TMR1            equ	14	;# 
   348     000E                     TMR1L           equ	14	;# 
   349     000F                     TMR1H           equ	15	;# 
   350     0010                     T1CON           equ	16	;# 
   351     0011                     TMR2            equ	17	;# 
   352     0012                     T2CON           equ	18	;# 
   353     0013                     SSPBUF          equ	19	;# 
   354     0014                     SSPCON          equ	20	;# 
   355     0015                     CCPR1           equ	21	;# 
   356     0015                     CCPR1L          equ	21	;# 
   357     0016                     CCPR1H          equ	22	;# 
   358     0017                     CCP1CON         equ	23	;# 
   359     0018                     RCSTA           equ	24	;# 
   360     0019                     TXREG           equ	25	;# 
   361     001A                     RCREG           equ	26	;# 
   362     001B                     CCPR2           equ	27	;# 
   363     001B                     CCPR2L          equ	27	;# 
   364     001C                     CCPR2H          equ	28	;# 
   365     001D                     CCP2CON         equ	29	;# 
   366     001E                     ADRESH          equ	30	;# 
   367     001F                     ADCON0          equ	31	;# 
   368     0081                     OPTION_REG      equ	129	;# 
   369     0085                     TRISA           equ	133	;# 
   370     0086                     TRISB           equ	134	;# 
   371     0087                     TRISC           equ	135	;# 
   372     0088                     TRISD           equ	136	;# 
   373     0089                     TRISE           equ	137	;# 
   374     008C                     PIE1            equ	140	;# 
   375     008D                     PIE2            equ	141	;# 
   376     008E                     PCON            equ	142	;# 
   377     0091                     SSPCON2         equ	145	;# 
   378     0092                     PR2             equ	146	;# 
   379     0093                     SSPADD          equ	147	;# 
   380     0094                     SSPSTAT         equ	148	;# 
   381     0098                     TXSTA           equ	152	;# 
   382     0099                     SPBRG           equ	153	;# 
   383     009C                     CMCON           equ	156	;# 
   384     009D                     CVRCON          equ	157	;# 
   385     009E                     ADRESL          equ	158	;# 
   386     009F                     ADCON1          equ	159	;# 
   387     010C                     EEDATA          equ	268	;# 
   388     010D                     EEADR           equ	269	;# 
   389     010E                     EEDATH          equ	270	;# 
   390     010F                     EEADRH          equ	271	;# 
   391     018C                     EECON1          equ	396	;# 
   392     018D                     EECON2          equ	397	;# 
   393     0000                     INDF            equ	0	;# 
   394     0001                     TMR0            equ	1	;# 
   395     0002                     PCL             equ	2	;# 
   396     0003                     STATUS          equ	3	;# 
   397     0004                     FSR             equ	4	;# 
   398     0005                     PORTA           equ	5	;# 
   399     0006                     PORTB           equ	6	;# 
   400     0007                     PORTC           equ	7	;# 
   401     0008                     PORTD           equ	8	;# 
   402     0009                     PORTE           equ	9	;# 
   403     000A                     PCLATH          equ	10	;# 
   404     000B                     INTCON          equ	11	;# 
   405     000C                     PIR1            equ	12	;# 
   406     000D                     PIR2            equ	13	;# 
   407     000E                     TMR1            equ	14	;# 
   408     000E                     TMR1L           equ	14	;# 
   409     000F                     TMR1H           equ	15	;# 
   410     0010                     T1CON           equ	16	;# 
   411     0011                     TMR2            equ	17	;# 
   412     0012                     T2CON           equ	18	;# 
   413     0013                     SSPBUF          equ	19	;# 
   414     0014                     SSPCON          equ	20	;# 
   415     0015                     CCPR1           equ	21	;# 
   416     0015                     CCPR1L          equ	21	;# 
   417     0016                     CCPR1H          equ	22	;# 
   418     0017                     CCP1CON         equ	23	;# 
   419     0018                     RCSTA           equ	24	;# 
   420     0019                     TXREG           equ	25	;# 
   421     001A                     RCREG           equ	26	;# 
   422     001B                     CCPR2           equ	27	;# 
   423     001B                     CCPR2L          equ	27	;# 
   424     001C                     CCPR2H          equ	28	;# 
   425     001D                     CCP2CON         equ	29	;# 
   426     001E                     ADRESH          equ	30	;# 
   427     001F                     ADCON0          equ	31	;# 
   428     0081                     OPTION_REG      equ	129	;# 
   429     0085                     TRISA           equ	133	;# 
   430     0086                     TRISB           equ	134	;# 
   431     0087                     TRISC           equ	135	;# 
   432     0088                     TRISD           equ	136	;# 
   433     0089                     TRISE           equ	137	;# 
   434     008C                     PIE1            equ	140	;# 
   435     008D                     PIE2            equ	141	;# 
   436     008E                     PCON            equ	142	;# 
   437     0091                     SSPCON2         equ	145	;# 
   438     0092                     PR2             equ	146	;# 
   439     0093                     SSPADD          equ	147	;# 
   440     0094                     SSPSTAT         equ	148	;# 
   441     0098                     TXSTA           equ	152	;# 
   442     0099                     SPBRG           equ	153	;# 
   443     009C                     CMCON           equ	156	;# 
   444     009D                     CVRCON          equ	157	;# 
   445     009E                     ADRESL          equ	158	;# 
   446     009F                     ADCON1          equ	159	;# 
   447     010C                     EEDATA          equ	268	;# 
   448     010D                     EEADR           equ	269	;# 
   449     010E                     EEDATH          equ	270	;# 
   450     010F                     EEADRH          equ	271	;# 
   451     018C                     EECON1          equ	396	;# 
   452     018D                     EECON2          equ	397	;# 
   453     0000                     INDF            equ	0	;# 
   454     0001                     TMR0            equ	1	;# 
   455     0002                     PCL             equ	2	;# 
   456     0003                     STATUS          equ	3	;# 
   457     0004                     FSR             equ	4	;# 
   458     0005                     PORTA           equ	5	;# 
   459     0006                     PORTB           equ	6	;# 
   460     0007                     PORTC           equ	7	;# 
   461     0008                     PORTD           equ	8	;# 
   462     0009                     PORTE           equ	9	;# 
   463     000A                     PCLATH          equ	10	;# 
   464     000B                     INTCON          equ	11	;# 
   465     000C                     PIR1            equ	12	;# 
   466     000D                     PIR2            equ	13	;# 
   467     000E                     TMR1            equ	14	;# 
   468     000E                     TMR1L           equ	14	;# 
   469     000F                     TMR1H           equ	15	;# 
   470     0010                     T1CON           equ	16	;# 
   471     0011                     TMR2            equ	17	;# 
   472     0012                     T2CON           equ	18	;# 
   473     0013                     SSPBUF          equ	19	;# 
   474     0014                     SSPCON          equ	20	;# 
   475     0015                     CCPR1           equ	21	;# 
   476     0015                     CCPR1L          equ	21	;# 
   477     0016                     CCPR1H          equ	22	;# 
   478     0017                     CCP1CON         equ	23	;# 
   479     0018                     RCSTA           equ	24	;# 
   480     0019                     TXREG           equ	25	;# 
   481     001A                     RCREG           equ	26	;# 
   482     001B                     CCPR2           equ	27	;# 
   483     001B                     CCPR2L          equ	27	;# 
   484     001C                     CCPR2H          equ	28	;# 
   485     001D                     CCP2CON         equ	29	;# 
   486     001E                     ADRESH          equ	30	;# 
   487     001F                     ADCON0          equ	31	;# 
   488     0081                     OPTION_REG      equ	129	;# 
   489     0085                     TRISA           equ	133	;# 
   490     0086                     TRISB           equ	134	;# 
   491     0087                     TRISC           equ	135	;# 
   492     0088                     TRISD           equ	136	;# 
   493     0089                     TRISE           equ	137	;# 
   494     008C                     PIE1            equ	140	;# 
   495     008D                     PIE2            equ	141	;# 
   496     008E                     PCON            equ	142	;# 
   497     0091                     SSPCON2         equ	145	;# 
   498     0092                     PR2             equ	146	;# 
   499     0093                     SSPADD          equ	147	;# 
   500     0094                     SSPSTAT         equ	148	;# 
   501     0098                     TXSTA           equ	152	;# 
   502     0099                     SPBRG           equ	153	;# 
   503     009C                     CMCON           equ	156	;# 
   504     009D                     CVRCON          equ	157	;# 
   505     009E                     ADRESL          equ	158	;# 
   506     009F                     ADCON1          equ	159	;# 
   507     010C                     EEDATA          equ	268	;# 
   508     010D                     EEADR           equ	269	;# 
   509     010E                     EEDATH          equ	270	;# 
   510     010F                     EEADRH          equ	271	;# 
   511     018C                     EECON1          equ	396	;# 
   512     018D                     EECON2          equ	397	;# 
   513                           
   514                           	psect	idataCOMMON
   515     07FF                     __pidataCOMMON:
   516                           
   517                           ;initializer for read_digital_keypad@once
   518     07FF  3401               	retlw	1
   519                           
   520                           	psect	idataBANK0
   521     07FC                     __pidataBANK0:
   522                           
   523                           ;initializer for _reset_flag
   524     07FC  3411               	retlw	17
   525                           
   526                           ;initializer for _operational_mode
   527     07FD  3401               	retlw	1
   528                           
   529                           ;initializer for read_digital_keypad@long_press
   530     07FE  3401               	retlw	1
   531                           
   532                           	psect	idataBANK1
   533     156D                     __pidataBANK1:
   534                           
   535                           ;initializer for _washing_program
   536     156D  3445               	retlw	low (STR_7| (0+32768))
   537     156E  3491               	retlw	high (STR_7| (0+32768))
   538     156F  344B               	retlw	low (STR_8| (0+32768))
   539     1570  3491               	retlw	high (STR_8| (0+32768))
   540     1571  34ED               	retlw	low (STR_9| (0+32768))
   541     1572  3490               	retlw	high (STR_9| (0+32768))
   542     1573  342C               	retlw	low (STR_10| (0+32768))
   543     1574  3491               	retlw	high (STR_10| (0+32768))
   544     1575  34B7               	retlw	low (STR_11| (0+32768))
   545     1576  3490               	retlw	high (STR_11| (0+32768))
   546     1577  34C2               	retlw	low (STR_12| (0+32768))
   547     1578  3490               	retlw	high (STR_12| (0+32768))
   548     1579  341D               	retlw	low (STR_13| (0+32768))
   549     157A  3491               	retlw	high (STR_13| (0+32768))
   550     157B  34CD               	retlw	low (STR_14| (0+32768))
   551     157C  3490               	retlw	high (STR_14| (0+32768))
   552     157D  3401               	retlw	low (STR_15| (0+32768))
   553     157E  3491               	retlw	high (STR_15| (0+32768))
   554     157F  340B               	retlw	low (STR_16| (0+32768))
   555     1580  3491               	retlw	high (STR_16| (0+32768))
   556     1581  34F7               	retlw	low (STR_17| (0+32768))
   557     1582  3490               	retlw	high (STR_17| (0+32768))
   558     1583  34AC               	retlw	low (STR_18| (0+32768))
   559     1584  3490               	retlw	high (STR_18| (0+32768))
   560                           
   561                           ;initializer for _water_level
   562     1585  3460               	retlw	low (STR_19| (0+32768))
   563     1586  3491               	retlw	high (STR_19| (0+32768))
   564     1587  3465               	retlw	low (STR_20| (0+32768))
   565     1588  3491               	retlw	high (STR_20| (0+32768))
   566     1589  3425               	retlw	low (STR_21| (0+32768))
   567     158A  3491               	retlw	high (STR_21| (0+32768))
   568     158B  3451               	retlw	low (STR_22| (0+32768))
   569     158C  3491               	retlw	high (STR_22| (0+32768))
   570     158D  3469               	retlw	low (STR_23| (0+32768))
   571     158E  3491               	retlw	high (STR_23| (0+32768))
   572     0006                     _PORTB          set	6
   573     0008                     _PORTD          set	8
   574     0061                     _TMR2IF         set	97
   575     0030                     _RB0            set	48
   576     0092                     _TMR2ON         set	146
   577     003A                     _RC2            set	58
   578     0039                     _RC1            set	57
   579     005E                     _PEIE           set	94
   580     005F                     _GIE            set	95
   581     0049                     _RE1            set	73
   582     004A                     _RE2            set	74
   583     0092                     _PR2            set	146
   584     0086                     _TRISB          set	134
   585     0088                     _TRISD          set	136
   586     0461                     _TMR2IE         set	1121
   587     043A                     _TRISC2         set	1082
   588     0439                     _TRISC1         set	1081
   589     0449                     _TRISE1         set	1097
   590     044A                     _TRISE2         set	1098
   591                           
   592                           	psect	strings
   593     0800                     __pstrings:
   594     0800                     stringtab:
   595     0800                     __stringtab:
   596                           
   597                           ;	String table - string pointers are 2 bytes each
   598     0800  1BFF               	btfsc	btemp+1,7
   599     0801  280A               	ljmp	stringcode
   600     0802  1383               	bcf	3,7
   601     0803  187F               	btfsc	btemp+1,0
   602     0804  1783               	bsf	3,7
   603     0805  0800               	movf	0,w
   604     0806  0A84               	incf	4,f
   605     0807  1903               	skipnz
   606     0808  0AFF               	incf	btemp+1,f
   607     0809  0008               	return
   608     080A                     stringcode:
   609     080A  087F               	movf	btemp+1,w
   610     080B  397F               	andlw	127
   611     080C  008A               	movwf	10
   612     080D  0804               	movf	4,w
   613     080E  0A84               	incf	4,f
   614     080F  1903               	skipnz
   615     0810  0AFF               	incf	btemp+1,f
   616     0811  0082               	movwf	2
   617     0812                     __stringbase:
   618     0812                     __end_of__stringtab:
   619                           
   620                           	psect	stringtext
   621     1000                     __pstringtext:
   622     1000                     STR_44:
   623     1000  3450               	retlw	80	;'P'
   624     1001  346C               	retlw	108	;'l'
   625     1002  3465               	retlw	101	;'e'
   626     1003  3461               	retlw	97	;'a'
   627     1004  3473               	retlw	115	;'s'
   628     1005  3465               	retlw	101	;'e'
   629     1006  3420               	retlw	32	;' '
   630     1007  3463               	retlw	99	;'c'
   631     1008  346C               	retlw	108	;'l'
   632     1009  346F               	retlw	111	;'o'
   633     100A  3473               	retlw	115	;'s'
   634     100B  3465               	retlw	101	;'e'
   635     100C  3420               	retlw	32	;' '
   636     100D  3464               	retlw	100	;'d'
   637     100E  346F               	retlw	111	;'o'
   638     100F  346F               	retlw	111	;'o'
   639     1010  3472               	retlw	114	;'r'
   640     1011  3400               	retlw	0
   641     1012                     STR_33:
   642     1012  3435               	retlw	53	;'5'
   643     1013  343A               	retlw	58	;':'
   644     1014  3453               	retlw	83	;'S'
   645     1015  3454               	retlw	84	;'T'
   646     1016  3441               	retlw	65	;'A'
   647     1017  3452               	retlw	82	;'R'
   648     1018  3454               	retlw	84	;'T'
   649     1019  3420               	retlw	32	;' '
   650     101A  3436               	retlw	54	;'6'
   651     101B  343A               	retlw	58	;':'
   652     101C  3450               	retlw	80	;'P'
   653     101D  3441               	retlw	65	;'A'
   654     101E  3455               	retlw	85	;'U'
   655     101F  3453               	retlw	83	;'S'
   656     1020  3445               	retlw	69	;'E'
   657     1021  3400               	retlw	0
   658     1022                     STR_26:
   659     1022  3457               	retlw	87	;'W'
   660     1023  3461               	retlw	97	;'a'
   661     1024  3473               	retlw	115	;'s'
   662     1025  3468               	retlw	104	;'h'
   663     1026  3469               	retlw	105	;'i'
   664     1027  346E               	retlw	110	;'n'
   665     1028  3467               	retlw	103	;'g'
   666     1029  3420               	retlw	32	;' '
   667     102A  3450               	retlw	80	;'P'
   668     102B  3472               	retlw	114	;'r'
   669     102C  346F               	retlw	111	;'o'
   670     102D  3467               	retlw	103	;'g'
   671     102E  3472               	retlw	114	;'r'
   672     102F  3461               	retlw	97	;'a'
   673     1030  346D               	retlw	109	;'m'
   674     1031  3400               	retlw	0
   675     1032                     STR_3:
   676     1032  3457               	retlw	87	;'W'
   677     1033  3461               	retlw	97	;'a'
   678     1034  3473               	retlw	115	;'s'
   679     1035  3468               	retlw	104	;'h'
   680     1036  3469               	retlw	105	;'i'
   681     1037  346E               	retlw	110	;'n'
   682     1038  3467               	retlw	103	;'g'
   683     1039  3420               	retlw	32	;' '
   684     103A  344D               	retlw	77	;'M'
   685     103B  3461               	retlw	97	;'a'
   686     103C  3463               	retlw	99	;'c'
   687     103D  3468               	retlw	104	;'h'
   688     103E  3469               	retlw	105	;'i'
   689     103F  346E               	retlw	110	;'n'
   690     1040  3465               	retlw	101	;'e'
   691     1041  3400               	retlw	0
   692     1042                     STR_41:
   693     1042  3450               	retlw	80	;'P'
   694     1043  3472               	retlw	114	;'r'
   695     1044  346F               	retlw	111	;'o'
   696     1045  3467               	retlw	103	;'g'
   697     1046  3420               	retlw	32	;' '
   698     1047  3463               	retlw	99	;'c'
   699     1048  346F               	retlw	111	;'o'
   700     1049  346D               	retlw	109	;'m'
   701     104A  3470               	retlw	112	;'p'
   702     104B  346C               	retlw	108	;'l'
   703     104C  3465               	retlw	101	;'e'
   704     104D  3474               	retlw	116	;'t'
   705     104E  3465               	retlw	101	;'e'
   706     104F  3464               	retlw	100	;'d'
   707     1050  3400               	retlw	0
   708     1051                     STR_42:
   709     1051  3452               	retlw	82	;'R'
   710     1052  3465               	retlw	101	;'e'
   711     1053  346D               	retlw	109	;'m'
   712     1054  346F               	retlw	111	;'o'
   713     1055  3476               	retlw	118	;'v'
   714     1056  3465               	retlw	101	;'e'
   715     1057  3420               	retlw	32	;' '
   716     1058  3463               	retlw	99	;'c'
   717     1059  346C               	retlw	108	;'l'
   718     105A  346F               	retlw	111	;'o'
   719     105B  3474               	retlw	116	;'t'
   720     105C  3468               	retlw	104	;'h'
   721     105D  3473               	retlw	115	;'s'
   722     105E  3400               	retlw	0
   723     105F                     STR_1:
   724     105F  3450               	retlw	80	;'P'
   725     1060  3472               	retlw	114	;'r'
   726     1061  3465               	retlw	101	;'e'
   727     1062  3473               	retlw	115	;'s'
   728     1063  3473               	retlw	115	;'s'
   729     1064  3420               	retlw	32	;' '
   730     1065  344B               	retlw	75	;'K'
   731     1066  3465               	retlw	101	;'e'
   732     1067  3479               	retlw	121	;'y'
   733     1068  3435               	retlw	53	;'5'
   734     1069  3420               	retlw	32	;' '
   735     106A  3474               	retlw	116	;'t'
   736     106B  346F               	retlw	111	;'o'
   737     106C  3400               	retlw	0
   738     106D                     STR_27:
   739     106D  3457               	retlw	87	;'W'
   740     106E  3441               	retlw	65	;'A'
   741     106F  3454               	retlw	84	;'T'
   742     1070  3445               	retlw	69	;'E'
   743     1071  3452               	retlw	82	;'R'
   744     1072  345F               	retlw	95	;'_'
   745     1073  344C               	retlw	76	;'L'
   746     1074  3445               	retlw	69	;'E'
   747     1075  3456               	retlw	86	;'V'
   748     1076  3445               	retlw	69	;'E'
   749     1077  344C               	retlw	76	;'L'
   750     1078  343A               	retlw	58	;':'
   751     1079  3400               	retlw	0
   752     107A                     STR_43:
   753     107A  3444               	retlw	68	;'D'
   754     107B  346F               	retlw	111	;'o'
   755     107C  346F               	retlw	111	;'o'
   756     107D  3472               	retlw	114	;'r'
   757     107E  3420               	retlw	32	;' '
   758     107F  3469               	retlw	105	;'i'
   759     1080  3473               	retlw	115	;'s'
   760     1081  3420               	retlw	32	;' '
   761     1082  346F               	retlw	111	;'o'
   762     1083  3470               	retlw	112	;'p'
   763     1084  3465               	retlw	101	;'e'
   764     1085  346E               	retlw	110	;'n'
   765     1086  3400               	retlw	0
   766     1087                     STR_4:
   767     1087  3450               	retlw	80	;'P'
   768     1088  3472               	retlw	114	;'r'
   769     1089  3465               	retlw	101	;'e'
   770     108A  3473               	retlw	115	;'s'
   771     108B  3473               	retlw	115	;'s'
   772     108C  3420               	retlw	32	;' '
   773     108D  3453               	retlw	83	;'S'
   774     108E  3477               	retlw	119	;'w'
   775     108F  3469               	retlw	105	;'i'
   776     1090  3474               	retlw	116	;'t'
   777     1091  3463               	retlw	99	;'c'
   778     1092  3468               	retlw	104	;'h'
   779     1093  3400               	retlw	0
   780     1094                     STR_24:
   781     1094  3450               	retlw	80	;'P'
   782     1095  346F               	retlw	111	;'o'
   783     1096  3477               	retlw	119	;'w'
   784     1097  3465               	retlw	101	;'e'
   785     1098  3472               	retlw	114	;'r'
   786     1099  3469               	retlw	105	;'i'
   787     109A  346E               	retlw	110	;'n'
   788     109B  3467               	retlw	103	;'g'
   789     109C  3420               	retlw	32	;' '
   790     109D  346F               	retlw	111	;'o'
   791     109E  346E               	retlw	110	;'n'
   792     109F  3400               	retlw	0
   793     10A0                     STR_5:
   794     10A0  3453               	retlw	83	;'S'
   795     10A1  3457               	retlw	87	;'W'
   796     10A2  3435               	retlw	53	;'5'
   797     10A3  3420               	retlw	32	;' '
   798     10A4  343A               	retlw	58	;':'
   799     10A5  3420               	retlw	32	;' '
   800     10A6  3453               	retlw	83	;'S'
   801     10A7  3454               	retlw	84	;'T'
   802     10A8  3441               	retlw	65	;'A'
   803     10A9  3452               	retlw	82	;'R'
   804     10AA  3454               	retlw	84	;'T'
   805     10AB  3400               	retlw	0
   806     10AC                     STR_18:
   807     10AC  3441               	retlw	65	;'A'
   808     10AD  3471               	retlw	113	;'q'
   809     10AE  3475               	retlw	117	;'u'
   810     10AF  3461               	retlw	97	;'a'
   811     10B0  3420               	retlw	32	;' '
   812     10B1  3473               	retlw	115	;'s'
   813     10B2  3474               	retlw	116	;'t'
   814     10B3  346F               	retlw	111	;'o'
   815     10B4  3472               	retlw	114	;'r'
   816     10B5  3465               	retlw	101	;'e'
   817     10B6  3400               	retlw	0
   818     10B7                     STR_11:
   819     10B7  3453               	retlw	83	;'S'
   820     10B8  3474               	retlw	116	;'t'
   821     10B9  3461               	retlw	97	;'a'
   822     10BA  3469               	retlw	105	;'i'
   823     10BB  346E               	retlw	110	;'n'
   824     10BC  3420               	retlw	32	;' '
   825     10BD  3477               	retlw	119	;'w'
   826     10BE  3461               	retlw	97	;'a'
   827     10BF  3473               	retlw	115	;'s'
   828     10C0  3468               	retlw	104	;'h'
   829     10C1  3400               	retlw	0
   830     10C2                     STR_12:
   831     10C2  3445               	retlw	69	;'E'
   832     10C3  3463               	retlw	99	;'c'
   833     10C4  346F               	retlw	111	;'o'
   834     10C5  3443               	retlw	67	;'C'
   835     10C6  346F               	retlw	111	;'o'
   836     10C7  3474               	retlw	116	;'t'
   837     10C8  3474               	retlw	116	;'t'
   838     10C9  346F               	retlw	111	;'o'
   839     10CA  346E               	retlw	110	;'n'
   840     10CB  3473               	retlw	115	;'s'
   841     10CC  3400               	retlw	0
   842     10CD                     STR_14:
   843     10CD  3442               	retlw	66	;'B'
   844     10CE  3465               	retlw	101	;'e'
   845     10CF  3464               	retlw	100	;'d'
   846     10D0  3420               	retlw	32	;' '
   847     10D1  3473               	retlw	115	;'s'
   848     10D2  3468               	retlw	104	;'h'
   849     10D3  3465               	retlw	101	;'e'
   850     10D4  3465               	retlw	101	;'e'
   851     10D5  3474               	retlw	116	;'t'
   852     10D6  3473               	retlw	115	;'s'
   853     10D7  3400               	retlw	0
   854     10D8                     STR_6:
   855     10D8  3453               	retlw	83	;'S'
   856     10D9  3457               	retlw	87	;'W'
   857     10DA  3436               	retlw	54	;'6'
   858     10DB  3420               	retlw	32	;' '
   859     10DC  343A               	retlw	58	;':'
   860     10DD  3420               	retlw	32	;' '
   861     10DE  3453               	retlw	83	;'S'
   862     10DF  3454               	retlw	84	;'T'
   863     10E0  344F               	retlw	79	;'O'
   864     10E1  3450               	retlw	80	;'P'
   865     10E2  3400               	retlw	0
   866     10E3                     STR_31:
   867     10E3  3446               	retlw	70	;'F'
   868     10E4  3475               	retlw	117	;'u'
   869     10E5  346E               	retlw	110	;'n'
   870     10E6  3463               	retlw	99	;'c'
   871     10E7  3474               	retlw	116	;'t'
   872     10E8  3469               	retlw	105	;'i'
   873     10E9  346F               	retlw	111	;'o'
   874     10EA  346E               	retlw	110	;'n'
   875     10EB  343A               	retlw	58	;':'
   876     10EC  3400               	retlw	0
   877     10ED                     STR_9:
   878     10ED  3444               	retlw	68	;'D'
   879     10EE  3465               	retlw	101	;'e'
   880     10EF  346C               	retlw	108	;'l'
   881     10F0  3469               	retlw	105	;'i'
   882     10F1  3463               	retlw	99	;'c'
   883     10F2  3461               	retlw	97	;'a'
   884     10F3  3474               	retlw	116	;'t'
   885     10F4  3465               	retlw	101	;'e'
   886     10F5  3473               	retlw	115	;'s'
   887     10F6  3400               	retlw	0
   888     10F7                     STR_17:
   889     10F7  3457               	retlw	87	;'W'
   890     10F8  3461               	retlw	97	;'a'
   891     10F9  3473               	retlw	115	;'s'
   892     10FA  3468               	retlw	104	;'h'
   893     10FB  3420               	retlw	32	;' '
   894     10FC  346F               	retlw	111	;'o'
   895     10FD  346E               	retlw	110	;'n'
   896     10FE  346C               	retlw	108	;'l'
   897     10FF  3479               	retlw	121	;'y'
   898     1100  3400               	retlw	0
   899     1101                     STR_15:
   900     1101  3452               	retlw	82	;'R'
   901     1102  3469               	retlw	105	;'i'
   902     1103  346E               	retlw	110	;'n'
   903     1104  3473               	retlw	115	;'s'
   904     1105  3465               	retlw	101	;'e'
   905     1106  342B               	retlw	43	;'+'
   906     1107  3444               	retlw	68	;'D'
   907     1108  3472               	retlw	114	;'r'
   908     1109  3479               	retlw	121	;'y'
   909     110A  3400               	retlw	0
   910     110B                     STR_16:
   911     110B  3444               	retlw	68	;'D'
   912     110C  3472               	retlw	114	;'r'
   913     110D  3479               	retlw	121	;'y'
   914     110E  3420               	retlw	32	;' '
   915     110F  346F               	retlw	111	;'o'
   916     1110  346E               	retlw	110	;'n'
   917     1111  346C               	retlw	108	;'l'
   918     1112  3479               	retlw	121	;'y'
   919     1113  3400               	retlw	0
   920     1114                     STR_2:
   921     1114  3450               	retlw	80	;'P'
   922     1115  346F               	retlw	111	;'o'
   923     1116  3477               	retlw	119	;'w'
   924     1117  3465               	retlw	101	;'e'
   925     1118  3472               	retlw	114	;'r'
   926     1119  3420               	retlw	32	;' '
   927     111A  344F               	retlw	79	;'O'
   928     111B  346E               	retlw	110	;'n'
   929     111C  3400               	retlw	0
   930     111D                     STR_13:
   931     111D  3457               	retlw	87	;'W'
   932     111E  346F               	retlw	111	;'o'
   933     111F  346F               	retlw	111	;'o'
   934     1120  346C               	retlw	108	;'l'
   935     1121  3465               	retlw	101	;'e'
   936     1122  346E               	retlw	110	;'n'
   937     1123  3473               	retlw	115	;'s'
   938     1124  3400               	retlw	0
   939     1125                     STR_21:
   940     1125  344D               	retlw	77	;'M'
   941     1126  3465               	retlw	101	;'e'
   942     1127  3464               	retlw	100	;'d'
   943     1128  3469               	retlw	105	;'i'
   944     1129  3475               	retlw	117	;'u'
   945     112A  346D               	retlw	109	;'m'
   946     112B  3400               	retlw	0
   947     112C                     STR_10:
   948     112C  3457               	retlw	87	;'W'
   949     112D  3468               	retlw	104	;'h'
   950     112E  3469               	retlw	105	;'i'
   951     112F  3474               	retlw	116	;'t'
   952     1130  3465               	retlw	101	;'e'
   953     1131  3473               	retlw	115	;'s'
   954     1132  3400               	retlw	0
   955     1133                     STR_30:
   956     1133  3454               	retlw	84	;'T'
   957     1134  3469               	retlw	105	;'i'
   958     1135  346D               	retlw	109	;'m'
   959     1136  3465               	retlw	101	;'e'
   960     1137  343A               	retlw	58	;':'
   961     1138  3400               	retlw	0
   962     1139                     STR_29:
   963     1139  3450               	retlw	80	;'P'
   964     113A  3472               	retlw	114	;'r'
   965     113B  346F               	retlw	111	;'o'
   966     113C  3467               	retlw	103	;'g'
   967     113D  343A               	retlw	58	;':'
   968     113E  3400               	retlw	0
   969     113F                     STR_35:
   970     113F  3452               	retlw	82	;'R'
   971     1140  3469               	retlw	105	;'i'
   972     1141  346E               	retlw	110	;'n'
   973     1142  3473               	retlw	115	;'s'
   974     1143  3465               	retlw	101	;'e'
   975     1144  3400               	retlw	0
   976     1145                     STR_7:
   977     1145  3444               	retlw	68	;'D'
   978     1146  3461               	retlw	97	;'a'
   979     1147  3469               	retlw	105	;'i'
   980     1148  346C               	retlw	108	;'l'
   981     1149  3479               	retlw	121	;'y'
   982     114A  3400               	retlw	0
   983     114B                     STR_8:
   984     114B  3448               	retlw	72	;'H'
   985     114C  3465               	retlw	101	;'e'
   986     114D  3461               	retlw	97	;'a'
   987     114E  3476               	retlw	118	;'v'
   988     114F  3479               	retlw	121	;'y'
   989     1150  3400               	retlw	0
   990     1151                     STR_22:
   991     1151  3448               	retlw	72	;'H'
   992     1152  3469               	retlw	105	;'i'
   993     1153  3467               	retlw	103	;'g'
   994     1154  3468               	retlw	104	;'h'
   995     1155  3400               	retlw	0
   996     1156                     STR_34:
   997     1156  3457               	retlw	87	;'W'
   998     1157  3461               	retlw	97	;'a'
   999     1158  3473               	retlw	115	;'s'
  1000     1159  3468               	retlw	104	;'h'
  1001     115A  3400               	retlw	0
  1002     115B                     STR_36:
  1003     115B  3453               	retlw	83	;'S'
  1004     115C  3470               	retlw	112	;'p'
  1005     115D  3469               	retlw	105	;'i'
  1006     115E  346E               	retlw	110	;'n'
  1007     115F  3400               	retlw	0
  1008     1160                     STR_19:
  1009     1160  3441               	retlw	65	;'A'
  1010     1161  3475               	retlw	117	;'u'
  1011     1162  3474               	retlw	116	;'t'
  1012     1163  346F               	retlw	111	;'o'
  1013     1164  3400               	retlw	0
  1014     1165                     STR_20:
  1015     1165  344C               	retlw	76	;'L'
  1016     1166  346F               	retlw	111	;'o'
  1017     1167  3477               	retlw	119	;'w'
  1018     1168  3400               	retlw	0
  1019     1169                     STR_23:
  1020     1169  344D               	retlw	77	;'M'
  1021     116A  3461               	retlw	97	;'a'
  1022     116B  3478               	retlw	120	;'x'
  1023     116C  3400               	retlw	0
  1024     116D                     STR_28:
  1025     116D  342A               	retlw	42	;'*'
  1026     116E  3400               	retlw	0
  1027     115B                     STR_38          equ	STR_36
  1028     115B                     STR_39          equ	STR_36
  1029     1156                     STR_40          equ	STR_34
  1030     113F                     STR_37          equ	STR_35
  1031     1032                     STR_25          equ	STR_3
  1032     1012                     STR_47          equ	STR_33
  1033     10E3                     STR_45          equ	STR_31
  1034     1133                     STR_32          equ	STR_30
  1035     1133                     STR_46          equ	STR_30
  1036                           
  1037                           	psect	cinit
  1038     000F                     start_initialization:	
  1039                           ; #config settings
  1040                           
  1041     000F                     __initialization:
  1042                           
  1043                           ; Initialize objects allocated to BANK1
  1044     000F  1383               	bcf	3,7	;select IRP bank0
  1045     0010  30C2               	movlw	low (__pdataBANK1+34)
  1046     0011  00FD               	movwf	btemp+-1
  1047     0012  3015               	movlw	high __pidataBANK1
  1048     0013  00FE               	movwf	btemp
  1049     0014  306D               	movlw	low __pidataBANK1
  1050     0015  00FF               	movwf	btemp+1
  1051     0016  30A0               	movlw	low __pdataBANK1
  1052     0017  0084               	movwf	4
  1053     0018  160A  118A  250F  120A  118A  	fcall	init_ram0
  1054                           
  1055                           ; Initialize objects allocated to BANK0
  1056     001D  3070               	movlw	low (__pdataBANK0+3)
  1057     001E  00FD               	movwf	btemp+-1
  1058     001F  3007               	movlw	high __pidataBANK0
  1059     0020  00FE               	movwf	btemp
  1060     0021  30FC               	movlw	low __pidataBANK0
  1061     0022  00FF               	movwf	btemp+1
  1062     0023  306D               	movlw	low __pdataBANK0
  1063     0024  0084               	movwf	4
  1064     0025  160A  118A  250F  120A  118A  	fcall	init_ram0
  1065                           
  1066                           ; Initialize objects allocated to COMMON
  1067     002A  120A  118A  27FF  120A  118A  	fcall	__pidataCOMMON	;fetch initializer
  1068     002F  00FB               	movwf	__pdataCOMMON& (0+127)
  1069                           
  1070                           ; Clear objects allocated to BANK1
  1071     0030  1683               	bsf	3,5	;RP0=1, select bank1
  1072     0031  1303               	bcf	3,6	;RP1=0, select bank1
  1073     0032  01C2               	clrf	__pbssBANK1& (0+127)
  1074     0033  01C3               	clrf	(__pbssBANK1+1)& (0+127)
  1075     0034  01C4               	clrf	(__pbssBANK1+2)& (0+127)
  1076     0035  01C5               	clrf	(__pbssBANK1+3)& (0+127)
  1077                           
  1078                           ; Clear objects allocated to BANK0
  1079     0036  1283               	bcf	3,5	;RP0=0, select bank0
  1080     0037  1303               	bcf	3,6	;RP1=0, select bank0
  1081     0038  01E4               	clrf	__pbssBANK0& (0+127)
  1082     0039  01E5               	clrf	(__pbssBANK0+1)& (0+127)
  1083     003A  01E6               	clrf	(__pbssBANK0+2)& (0+127)
  1084     003B  01E7               	clrf	(__pbssBANK0+3)& (0+127)
  1085     003C  01E8               	clrf	(__pbssBANK0+4)& (0+127)
  1086     003D  01E9               	clrf	(__pbssBANK0+5)& (0+127)
  1087     003E  01EA               	clrf	(__pbssBANK0+6)& (0+127)
  1088     003F  01EB               	clrf	(__pbssBANK0+7)& (0+127)
  1089     0040  01EC               	clrf	(__pbssBANK0+8)& (0+127)
  1090                           
  1091                           ; Clear objects allocated to COMMON
  1092     0041  01FA               	clrf	__pbssCOMMON& (0+127)
  1093     0042                     end_of_initialization:	
  1094                           ;End of C runtime variable initialization code
  1095                           
  1096     0042                     __end_of__initialization:
  1097     0042  0183               	clrf	3
  1098     0043  120A  158A  2A6D   	ljmp	_main	;jump to C main() function
  1099                           
  1100                           	psect	bssCOMMON
  1101     007A                     __pbssCOMMON:
  1102     007A                     _level:
  1103     007A                     	ds	1
  1104                           
  1105                           	psect	dataCOMMON
  1106     007B                     __pdataCOMMON:
  1107     007B                     read_digital_keypad@once:
  1108     007B                     	ds	1
  1109                           
  1110                           	psect	bssBANK0
  1111     0064                     __pbssBANK0:
  1112     0064                     _time:
  1113     0064                     	ds	1
  1114     0065                     _spin_time:
  1115     0065                     	ds	1
  1116     0066                     _rinse_time:
  1117     0066                     	ds	1
  1118     0067                     _wash_time:
  1119     0067                     	ds	1
  1120     0068                     _total_time:
  1121     0068                     	ds	1
  1122     0069                     _min:
  1123     0069                     	ds	1
  1124     006A                     _sec:
  1125     006A                     	ds	1
  1126     006B                     _program_no:
  1127     006B                     	ds	1
  1128     006C                     read_digital_keypad@pre_key:
  1129     006C                     	ds	1
  1130                           
  1131                           	psect	dataBANK0
  1132     006D                     __pdataBANK0:
  1133     006D                     _reset_flag:
  1134     006D                     	ds	1
  1135     006E                     _operational_mode:
  1136     006E                     	ds	1
  1137     006F                     read_digital_keypad@long_press:
  1138     006F                     	ds	1
  1139                           
  1140                           	psect	bssBANK1
  1141     00C2                     __pbssBANK1:
  1142     00C2                     isr@count:
  1143     00C2                     	ds	4
  1144                           
  1145                           	psect	dataBANK1
  1146     00A0                     __pdataBANK1:
  1147     00A0                     _washing_program:
  1148     00A0                     	ds	24
  1149     00B8                     _water_level:
  1150     00B8                     	ds	10
  1151                           
  1152                           	psect	inittext
  1153     150B                     init_fetch0:	
  1154                           ;	Called with low address in FSR and high address in W
  1155                           
  1156     150B  087E               	movf	btemp,w
  1157     150C  008A               	movwf	10
  1158     150D  087F               	movf	btemp+1,w
  1159     150E  0082               	movwf	2
  1160     150F                     init_ram0:	
  1161                           ;Called with:
  1162                           ;	high address of idata address in btemp 
  1163                           ;	low address of idata address in btemp+1 
  1164                           ;	low address of data in FSR
  1165                           ;	high address + 1 of data in btemp-1
  1166                           
  1167     150F  160A  118A  250B  160A  118A  	fcall	init_fetch0
  1168     1514  0080               	movwf	0
  1169     1515  0A84               	incf	4,f
  1170     1516  0804               	movf	4,w
  1171     1517  067D               	xorwf	btemp+-1,w
  1172     1518  1903               	btfsc	3,2
  1173     1519  3400               	retlw	0
  1174     151A  0AFF               	incf	btemp+1,f
  1175     151B  1903               	btfsc	3,2
  1176     151C  0AFE               	incf	btemp,f
  1177     151D  2D0F               	goto	init_ram0
  1178                           
  1179                           	psect	cstackCOMMON
  1180     0070                     __pcstackCOMMON:
  1181     0070                     ?_init_timer2:
  1182     0070                     ?_clear_screen:	
  1183                           ; 1 bytes @ 0x0
  1184                           
  1185     0070                     ?_power_on_screen:	
  1186                           ; 1 bytes @ 0x0
  1187                           
  1188     0070                     ?_set_time:	
  1189                           ; 1 bytes @ 0x0
  1190                           
  1191     0070                     ?_washing_program_display:	
  1192                           ; 1 bytes @ 0x0
  1193                           
  1194     0070                     ?_water_level_screen:	
  1195                           ; 1 bytes @ 0x0
  1196                           
  1197     0070                     ?_run_program:	
  1198                           ; 1 bytes @ 0x0
  1199                           
  1200     0070                     ?_door_status_check:	
  1201                           ; 1 bytes @ 0x0
  1202                           
  1203     0070                     ?_init_display_controller:	
  1204                           ; 1 bytes @ 0x0
  1205                           
  1206     0070                     ?_init_clcd:	
  1207                           ; 1 bytes @ 0x0
  1208                           
  1209     0070                     ?_init_digital_keypad:	
  1210                           ; 1 bytes @ 0x0
  1211                           
  1212     0070                     ?_read_digital_keypad:	
  1213                           ; 1 bytes @ 0x0
  1214                           
  1215     0070                     ?_init_config:	
  1216                           ; 1 bytes @ 0x0
  1217                           
  1218     0070                     ?_main:	
  1219                           ; 1 bytes @ 0x0
  1220                           
  1221     0070                     ?_isr:	
  1222                           ; 1 bytes @ 0x0
  1223                           
  1224     0070                     ??_isr:	
  1225                           ; 1 bytes @ 0x0
  1226                           
  1227                           
  1228                           ; 1 bytes @ 0x0
  1229     0070                     	ds	2
  1230     0072                     ?_clcd_write:
  1231     0072                     ?___bmul:	
  1232                           ; 1 bytes @ 0x2
  1233                           
  1234     0072                     ?__Umul8_16:	
  1235                           ; 1 bytes @ 0x2
  1236                           
  1237     0072                     ?___awdiv:	
  1238                           ; 2 bytes @ 0x2
  1239                           
  1240     0072                     ?___awmod:	
  1241                           ; 2 bytes @ 0x2
  1242                           
  1243     0072                     ?___fladd:	
  1244                           ; 2 bytes @ 0x2
  1245                           
  1246     0072                     ?___xxtofl:	
  1247                           ; 4 bytes @ 0x2
  1248                           
  1249     0072                     clcd_write@mode:	
  1250                           ; 4 bytes @ 0x2
  1251                           
  1252     0072                     ___bmul@multiplicand:	
  1253                           ; 1 bytes @ 0x2
  1254                           
  1255     0072                     __Umul8_16@multiplicand:	
  1256                           ; 1 bytes @ 0x2
  1257                           
  1258     0072                     ___awdiv@divisor:	
  1259                           ; 1 bytes @ 0x2
  1260                           
  1261     0072                     ___awmod@divisor:	
  1262                           ; 2 bytes @ 0x2
  1263                           
  1264     0072                     ___fladd@b:	
  1265                           ; 2 bytes @ 0x2
  1266                           
  1267     0072                     ___xxtofl@val:	
  1268                           ; 4 bytes @ 0x2
  1269                           
  1270     0072                     ??_init_timer2:	
  1271                           ; 4 bytes @ 0x2
  1272                           
  1273     0072                     ??_set_time:	
  1274                           ; 1 bytes @ 0x2
  1275                           
  1276     0072                     ??_init_digital_keypad:	
  1277                           ; 1 bytes @ 0x2
  1278                           
  1279     0072                     ??_read_digital_keypad:	
  1280                           ; 1 bytes @ 0x2
  1281                           
  1282                           
  1283                           ; 1 bytes @ 0x2
  1284     0072                     	ds	1
  1285     0073                     read_digital_keypad@mode:
  1286     0073                     ___bmul@product:	
  1287                           ; 1 bytes @ 0x3
  1288                           
  1289     0073                     ??_clcd_write:	
  1290                           ; 1 bytes @ 0x3
  1291                           
  1292     0073                     ??___bmul:	
  1293                           ; 1 bytes @ 0x3
  1294                           
  1295                           
  1296                           ; 1 bytes @ 0x3
  1297     0073                     	ds	1
  1298     0074                     read_digital_keypad@key:
  1299     0074                     ___bmul@multiplier:	
  1300                           ; 1 bytes @ 0x4
  1301                           
  1302     0074                     ___awdiv@dividend:	
  1303                           ; 1 bytes @ 0x4
  1304                           
  1305     0074                     ___awmod@dividend:	
  1306                           ; 2 bytes @ 0x4
  1307                           
  1308     0074                     ??__Umul8_16:	
  1309                           ; 2 bytes @ 0x4
  1310                           
  1311                           
  1312                           ; 1 bytes @ 0x4
  1313     0074                     	ds	1
  1314     0075                     clcd_write@byte:
  1315                           
  1316                           ; 1 bytes @ 0x5
  1317     0075                     	ds	1
  1318     0076                     ___awdiv@counter:
  1319     0076                     ___awmod@counter:	
  1320                           ; 1 bytes @ 0x6
  1321                           
  1322     0076                     ___fladd@a:	
  1323                           ; 1 bytes @ 0x6
  1324                           
  1325     0076                     ??_clear_screen:	
  1326                           ; 4 bytes @ 0x6
  1327                           
  1328     0076                     ??_init_display_controller:	
  1329                           ; 1 bytes @ 0x6
  1330                           
  1331     0076                     ??___awdiv:	
  1332                           ; 1 bytes @ 0x6
  1333                           
  1334     0076                     ??___awmod:	
  1335                           ; 1 bytes @ 0x6
  1336                           
  1337     0076                     ??___xxtofl:	
  1338                           ; 1 bytes @ 0x6
  1339                           
  1340                           
  1341                           ; 1 bytes @ 0x6
  1342     0076                     	ds	1
  1343     0077                     ___awdiv@sign:
  1344     0077                     ___awmod@sign:	
  1345                           ; 1 bytes @ 0x7
  1346                           
  1347                           
  1348                           ; 1 bytes @ 0x7
  1349     0077                     	ds	1
  1350     0078                     ___awdiv@quotient:
  1351     0078                     ??_water_level_screen:	
  1352                           ; 2 bytes @ 0x8
  1353                           
  1354     0078                     ??_door_status_check:	
  1355                           ; 1 bytes @ 0x8
  1356                           
  1357     0078                     ??_init_clcd:	
  1358                           ; 1 bytes @ 0x8
  1359                           
  1360     0078                     ??_clcd_print:	
  1361                           ; 1 bytes @ 0x8
  1362                           
  1363     0078                     ??_init_config:	
  1364                           ; 1 bytes @ 0x8
  1365                           
  1366                           
  1367                           ; 1 bytes @ 0x8
  1368     0078                     	ds	2
  1369     007A                     ??_clcd_putch:
  1370     007A                     ??_main:	
  1371                           ; 1 bytes @ 0xA
  1372                           
  1373     007A                     ??___flsub:	
  1374                           ; 1 bytes @ 0xA
  1375                           
  1376                           
  1377                           	psect	cstackBANK0
  1378     0020                     __pcstackBANK0:	
  1379                           ; 1 bytes @ 0xA
  1380                           
  1381     0020                     ?_clcd_putch:
  1382     0020                     ?_clcd_print:	
  1383                           ; 1 bytes @ 0x0
  1384                           
  1385     0020                     clcd_putch@addr:	
  1386                           ; 1 bytes @ 0x0
  1387                           
  1388     0020                     ___xxtofl@sign:	
  1389                           ; 1 bytes @ 0x0
  1390                           
  1391     0020                     clcd_print@str:	
  1392                           ; 1 bytes @ 0x0
  1393                           
  1394     0020                     __Umul8_16@product:	
  1395                           ; 2 bytes @ 0x0
  1396                           
  1397     0020                     ??___fladd:	
  1398                           ; 2 bytes @ 0x0
  1399                           
  1400                           
  1401                           ; 1 bytes @ 0x0
  1402     0020                     	ds	1
  1403     0021                     clcd_putch@data:
  1404     0021                     ___xxtofl@exp:	
  1405                           ; 1 bytes @ 0x1
  1406                           
  1407                           
  1408                           ; 1 bytes @ 0x1
  1409     0021                     	ds	1
  1410     0022                     clcd_print@addr:
  1411     0022                     __Umul8_16@word_mpld:	
  1412                           ; 1 bytes @ 0x2
  1413                           
  1414     0022                     ___xxtofl@arg:	
  1415                           ; 2 bytes @ 0x2
  1416                           
  1417                           
  1418                           ; 4 bytes @ 0x2
  1419     0022                     	ds	1
  1420     0023                     water_level_screen@key:
  1421     0023                     ??_power_on_screen:	
  1422                           ; 1 bytes @ 0x3
  1423                           
  1424     0023                     ??_washing_program_display:	
  1425                           ; 1 bytes @ 0x3
  1426                           
  1427                           
  1428                           ; 1 bytes @ 0x3
  1429     0023                     	ds	1
  1430     0024                     __Umul8_16@multiplier:
  1431                           
  1432                           ; 1 bytes @ 0x4
  1433     0024                     	ds	1
  1434     0025                     washing_program_display@key:
  1435                           
  1436                           ; 1 bytes @ 0x5
  1437     0025                     	ds	1
  1438     0026                     ?___flmul:
  1439     0026                     power_on_screen@i:	
  1440                           ; 4 bytes @ 0x6
  1441                           
  1442     0026                     ___flmul@b:	
  1443                           ; 1 bytes @ 0x6
  1444                           
  1445                           
  1446                           ; 4 bytes @ 0x6
  1447     0026                     	ds	1
  1448     0027                     power_on_screen@i_172:
  1449                           
  1450                           ; 1 bytes @ 0x7
  1451     0027                     	ds	1
  1452     0028                     ___fladd@signs:
  1453                           
  1454                           ; 1 bytes @ 0x8
  1455     0028                     	ds	1
  1456     0029                     ___fladd@aexp:
  1457                           
  1458                           ; 1 bytes @ 0x9
  1459     0029                     	ds	1
  1460     002A                     ___fladd@bexp:
  1461     002A                     ___flmul@a:	
  1462                           ; 1 bytes @ 0xA
  1463                           
  1464                           
  1465                           ; 4 bytes @ 0xA
  1466     002A                     	ds	1
  1467     002B                     ___fladd@grs:
  1468                           
  1469                           ; 1 bytes @ 0xB
  1470     002B                     	ds	3
  1471     002E                     ??___flmul:
  1472                           
  1473                           ; 1 bytes @ 0xE
  1474     002E                     	ds	5
  1475     0033                     ___flmul@sign:
  1476                           
  1477                           ; 1 bytes @ 0x13
  1478     0033                     	ds	1
  1479     0034                     ___flmul@aexp:
  1480                           
  1481                           ; 1 bytes @ 0x14
  1482     0034                     	ds	1
  1483     0035                     ___flmul@grs:
  1484                           
  1485                           ; 4 bytes @ 0x15
  1486     0035                     	ds	4
  1487     0039                     ___flmul@bexp:
  1488                           
  1489                           ; 1 bytes @ 0x19
  1490     0039                     	ds	1
  1491     003A                     ___flmul@prod:
  1492                           
  1493                           ; 4 bytes @ 0x1A
  1494     003A                     	ds	4
  1495     003E                     ___flmul@temp:
  1496                           
  1497                           ; 2 bytes @ 0x1E
  1498     003E                     	ds	2
  1499     0040                     ?___fltol:
  1500     0040                     ?___flsub:	
  1501                           ; 4 bytes @ 0x20
  1502                           
  1503     0040                     ___fltol@f1:	
  1504                           ; 4 bytes @ 0x20
  1505                           
  1506     0040                     ___flsub@a:	
  1507                           ; 4 bytes @ 0x20
  1508                           
  1509                           
  1510                           ; 4 bytes @ 0x20
  1511     0040                     	ds	4
  1512     0044                     ___flsub@b:
  1513     0044                     ??___fltol:	
  1514                           ; 4 bytes @ 0x24
  1515                           
  1516                           
  1517                           ; 1 bytes @ 0x24
  1518     0044                     	ds	4
  1519     0048                     ?___flge:
  1520     0048                     ___fltol@sign1:	
  1521                           ; 1 bit 
  1522                           
  1523     0048                     ___flge@ff1:	
  1524                           ; 1 bytes @ 0x28
  1525                           
  1526                           
  1527                           ; 4 bytes @ 0x28
  1528     0048                     	ds	1
  1529     0049                     ___fltol@exp1:
  1530                           
  1531                           ; 1 bytes @ 0x29
  1532     0049                     	ds	3
  1533     004C                     ___flge@ff2:
  1534                           
  1535                           ; 4 bytes @ 0x2C
  1536     004C                     	ds	4
  1537     0050                     ??___flge:
  1538                           
  1539                           ; 1 bytes @ 0x30
  1540     0050                     	ds	4
  1541     0054                     ??_run_program:
  1542                           
  1543                           ; 1 bytes @ 0x34
  1544     0054                     	ds	12
  1545     0060                     run_program@key:
  1546                           
  1547                           ; 1 bytes @ 0x40
  1548     0060                     	ds	1
  1549     0061                     main@delay:
  1550                           
  1551                           ; 2 bytes @ 0x41
  1552     0061                     	ds	2
  1553     0063                     main@key:
  1554                           
  1555                           ; 1 bytes @ 0x43
  1556     0063                     	ds	1
  1557                           
  1558                           	psect	maintext
  1559     0A6D                     __pmaintext:	
  1560 ;;
  1561 ;;Main: autosize = 0, tempsize = 0, incstack = 0, save=0
  1562 ;;
  1563 ;; *************** function _main *****************
  1564 ;; Defined at:
  1565 ;;		line 18 in file "main.c"
  1566 ;; Parameters:    Size  Location     Type
  1567 ;;		None
  1568 ;; Auto vars:     Size  Location     Type
  1569 ;;  delay           2   65[BANK0 ] unsigned int 
  1570 ;;  key             1   67[BANK0 ] unsigned char 
  1571 ;; Return value:  Size  Location     Type
  1572 ;;                  1    wreg      void 
  1573 ;; Registers used:
  1574 ;;		wreg, fsr0l, fsr0h, status,2, status,0, btemp+1, pclath, cstack
  1575 ;; Tracked objects:
  1576 ;;		On entry : B00/0
  1577 ;;		On exit  : 0/0
  1578 ;;		Unchanged: 0/0
  1579 ;; Data sizes:     COMMON   BANK0   BANK1   BANK3   BANK2
  1580 ;;      Params:         0       0       0       0       0
  1581 ;;      Locals:         0       3       0       0       0
  1582 ;;      Temps:          0       0       0       0       0
  1583 ;;      Totals:         0       3       0       0       0
  1584 ;;Total ram usage:        3 bytes
  1585 ;; Hardware stack levels required when called: 5
  1586 ;; This function calls:
  1587 ;;		_clcd_print
  1588 ;;		_clear_screen
  1589 ;;		_init_config
  1590 ;;		_power_on_screen
  1591 ;;		_read_digital_keypad
  1592 ;;		_run_program
  1593 ;;		_set_time
  1594 ;;		_washing_program_display
  1595 ;;		_water_level_screen
  1596 ;; This function is called by:
  1597 ;;		Startup code after reset
  1598 ;; This function uses a non-reentrant model
  1599 ;;
  1600                           
  1601     0A6D                     _main:	
  1602                           ;psect for function _main
  1603                           
  1604     0A6D                     l3622:	
  1605                           ;incstack = 0
  1606                           ; Regs used in _main: [wreg-fsr0h+status,2+status,0+btemp+1+pclath+cstack]
  1607                           
  1608                           
  1609                           ;main.c: 19:      clcd_print("Washing Machine", (0x90 + 1));
  1610     0A6D  160A  118A  2533  120A  158A  	fcall	_init_config
  1611     0A72                     l3624:
  1612                           
  1613                           ;main.c: 20: ;main.c: 21:      while(read_digital_keypad(1) != 0x2F);
  1614     0A72  305F               	movlw	low (STR_1| (0+32768))
  1615     0A73  1283               	bcf	3,5	;RP0=0, select bank0
  1616     0A74  1303               	bcf	3,6	;RP1=0, select bank0
  1617     0A75  00A0               	movwf	clcd_print@str
  1618     0A76  3090               	movlw	high (STR_1| (0+32768))
  1619     0A77  00A1               	movwf	clcd_print@str+1
  1620     0A78  3081               	movlw	129
  1621     0A79  00A2               	movwf	clcd_print@addr
  1622     0A7A  120A  158A  2012  120A  158A  	fcall	_clcd_print
  1623     0A7F                     l3626:
  1624                           
  1625                           ;main.c: 22:      clear_screen();
  1626     0A7F  3014               	movlw	low (STR_2| (0+32768))
  1627     0A80  1283               	bcf	3,5	;RP0=0, select bank0
  1628     0A81  1303               	bcf	3,6	;RP1=0, select bank0
  1629     0A82  00A0               	movwf	clcd_print@str
  1630     0A83  3091               	movlw	high (STR_2| (0+32768))
  1631     0A84  00A1               	movwf	clcd_print@str+1
  1632     0A85  30C5               	movlw	197
  1633     0A86  00A2               	movwf	clcd_print@addr
  1634     0A87  120A  158A  2012  120A  158A  	fcall	_clcd_print
  1635     0A8C                     l3628:
  1636                           
  1637                           ;main.c: 23:      power_on_screen();
  1638     0A8C  3032               	movlw	low (STR_3| (0+32768))
  1639     0A8D  1283               	bcf	3,5	;RP0=0, select bank0
  1640     0A8E  1303               	bcf	3,6	;RP1=0, select bank0
  1641     0A8F  00A0               	movwf	clcd_print@str
  1642     0A90  3090               	movlw	high (STR_3| (0+32768))
  1643     0A91  00A1               	movwf	clcd_print@str+1
  1644     0A92  3091               	movlw	145
  1645     0A93  00A2               	movwf	clcd_print@addr
  1646     0A94  120A  158A  2012  120A  158A  	fcall	_clcd_print
  1647     0A99                     l3630:	
  1648                           ;main.c: 25:     while(1){
  1649                           
  1650     0A99  3001               	movlw	1
  1651     0A9A  120A  158A  2045  120A  158A  	fcall	_read_digital_keypad
  1652     0A9F  3A2F               	xorlw	47
  1653     0AA0  1D03               	skipz
  1654     0AA1  2AA3               	goto	u4601
  1655     0AA2  2AA4               	goto	u4600
  1656     0AA3                     u4601:
  1657     0AA3  2A99               	goto	l3630
  1658     0AA4                     u4600:
  1659     0AA4                     l3632:
  1660                           
  1661                           ;main.c: 26:        key = read_digital_keypad(1);
  1662     0AA4  160A  118A  24E7  120A  158A  	fcall	_clear_screen
  1663     0AA9                     l3634:
  1664                           
  1665                           ;main.c: 27:        for(unsigned int delay = 300;delay--;);
  1666     0AA9  160A  118A  2798  120A  158A  	fcall	_power_on_screen
  1667     0AAE                     l3636:
  1668                           
  1669                           ;main.c: 30:            operational_mode = 0x02;
  1670     0AAE  3001               	movlw	1
  1671     0AAF  120A  158A  2045  120A  158A  	fcall	_read_digital_keypad
  1672     0AB4  1283               	bcf	3,5	;RP0=0, select bank0
  1673     0AB5  1303               	bcf	3,6	;RP1=0, select bank0
  1674     0AB6  00E3               	movwf	main@key
  1675     0AB7                     l3638:
  1676                           
  1677                           ;main.c: 31:            reset_flag = 0x22;
  1678     0AB7  302C               	movlw	44
  1679     0AB8  00E1               	movwf	main@delay
  1680     0AB9  3001               	movlw	1
  1681     0ABA  00E2               	movwf	main@delay+1
  1682     0ABB                     l3640:
  1683     0ABB  3001               	movlw	1
  1684     0ABC  02E1               	subwf	main@delay,f
  1685     0ABD  3000               	movlw	0
  1686     0ABE  1C03               	skipc
  1687     0ABF  03E2               	decf	main@delay+1,f
  1688     0AC0  02E2               	subwf	main@delay+1,f
  1689     0AC1  0A61               	incf	main@delay,w
  1690     0AC2  1D03               	skipz
  1691     0AC3  2AC8               	goto	u4611
  1692     0AC4  0A62               	incf	main@delay+1,w
  1693     0AC5  1D03               	btfss	3,2
  1694     0AC6  2AC8               	goto	u4611
  1695     0AC7  2AC9               	goto	u4610
  1696     0AC8                     u4611:
  1697     0AC8  2ABB               	goto	l3640
  1698     0AC9                     u4610:
  1699     0AC9                     l3642:
  1700                           
  1701                           ;main.c: 32: 
  1702     0AC9  3099               	movlw	153
  1703     0ACA  0663               	xorwf	main@key,w
  1704     0ACB  1D03               	btfss	3,2
  1705     0ACC  2ACE               	goto	u4621
  1706     0ACD  2ACF               	goto	u4620
  1707     0ACE                     u4621:
  1708     0ACE  2AD9               	goto	l3648
  1709     0ACF                     u4620:
  1710     0ACF                     l3644:
  1711     0ACF  036E               	decf	_operational_mode,w
  1712     0AD0  1D03               	btfss	3,2
  1713     0AD1  2AD3               	goto	u4631
  1714     0AD2  2AD4               	goto	u4630
  1715     0AD3                     u4631:
  1716     0AD3  2AD9               	goto	l3648
  1717     0AD4                     u4630:
  1718     0AD4                     l3646:
  1719                           
  1720                           ;main.c: 33:        };main.c: 34:        else if(key == 0x99 && operational_mode == 0x02
      +                          )
  1721     0AD4  3002               	movlw	2
  1722     0AD5  00EE               	movwf	_operational_mode
  1723                           
  1724                           ;main.c: 35:        {
  1725     0AD6  3022               	movlw	34
  1726     0AD7  00ED               	movwf	_reset_flag
  1727                           
  1728                           ;main.c: 37:            clear_screen();
  1729     0AD8  2B56               	goto	l3686
  1730     0AD9                     l3648:
  1731     0AD9  3099               	movlw	153
  1732     0ADA  0663               	xorwf	main@key,w
  1733     0ADB  1D03               	btfss	3,2
  1734     0ADC  2ADE               	goto	u4641
  1735     0ADD  2ADF               	goto	u4640
  1736     0ADE                     u4641:
  1737     0ADE  2B19               	goto	l3664
  1738     0ADF                     u4640:
  1739     0ADF                     l3650:
  1740     0ADF  3002               	movlw	2
  1741     0AE0  066E               	xorwf	_operational_mode,w
  1742     0AE1  1D03               	btfss	3,2
  1743     0AE2  2AE4               	goto	u4651
  1744     0AE3  2AE5               	goto	u4650
  1745     0AE4                     u4651:
  1746     0AE4  2B19               	goto	l3664
  1747     0AE5                     u4650:
  1748     0AE5                     l3652:
  1749                           
  1750                           ;main.c: 39:            clcd_print("SW5 : START",(0xC0 + 0));;main.c: 40:            clc
      +                          d_print("SW6 : STOP",(0x90 + 0));
  1751     0AE5  3003               	movlw	3
  1752     0AE6  00EE               	movwf	_operational_mode
  1753     0AE7                     l3654:
  1754                           
  1755                           ;main.c: 41:            set_time();
  1756     0AE7  160A  118A  24E7  120A  158A  	fcall	_clear_screen
  1757     0AEC                     l3656:
  1758                           
  1759                           ;main.c: 42:        }
  1760     0AEC  3087               	movlw	low (STR_4| (0+32768))
  1761     0AED  1283               	bcf	3,5	;RP0=0, select bank0
  1762     0AEE  1303               	bcf	3,6	;RP1=0, select bank0
  1763     0AEF  00A0               	movwf	clcd_print@str
  1764     0AF0  3090               	movlw	high (STR_4| (0+32768))
  1765     0AF1  00A1               	movwf	clcd_print@str+1
  1766     0AF2  3080               	movlw	128
  1767     0AF3  00A2               	movwf	clcd_print@addr
  1768     0AF4  120A  158A  2012  120A  158A  	fcall	_clcd_print
  1769     0AF9                     l3658:
  1770                           
  1771                           ;main.c: 43:        else if(key == 0x2F && operational_mode == 0x44)
  1772     0AF9  30A0               	movlw	low (STR_5| (0+32768))
  1773     0AFA  1283               	bcf	3,5	;RP0=0, select bank0
  1774     0AFB  1303               	bcf	3,6	;RP1=0, select bank0
  1775     0AFC  00A0               	movwf	clcd_print@str
  1776     0AFD  3090               	movlw	high (STR_5| (0+32768))
  1777     0AFE  00A1               	movwf	clcd_print@str+1
  1778     0AFF  30C0               	movlw	192
  1779     0B00  00A2               	movwf	clcd_print@addr
  1780     0B01  120A  158A  2012  120A  158A  	fcall	_clcd_print
  1781     0B06                     l3660:
  1782                           
  1783                           ;main.c: 44:        {
  1784     0B06  30D8               	movlw	low (STR_6| (0+32768))
  1785     0B07  1283               	bcf	3,5	;RP0=0, select bank0
  1786     0B08  1303               	bcf	3,6	;RP1=0, select bank0
  1787     0B09  00A0               	movwf	clcd_print@str
  1788     0B0A  3090               	movlw	high (STR_6| (0+32768))
  1789     0B0B  00A1               	movwf	clcd_print@str+1
  1790     0B0C  3090               	movlw	144
  1791     0B0D  00A2               	movwf	clcd_print@addr
  1792     0B0E  120A  158A  2012  120A  158A  	fcall	_clcd_print
  1793     0B13                     l3662:
  1794                           
  1795                           ;main.c: 45:            operational_mode = 0x04;
  1796     0B13  120A  158A  246F  120A  158A  	fcall	_set_time
  1797                           
  1798                           ;main.c: 46:            TMR2ON = 1;
  1799     0B18  2B56               	goto	l3686
  1800     0B19                     l3664:
  1801     0B19  302F               	movlw	47
  1802     0B1A  0663               	xorwf	main@key,w
  1803     0B1B  1D03               	btfss	3,2
  1804     0B1C  2B1E               	goto	u4661
  1805     0B1D  2B1F               	goto	u4660
  1806     0B1E                     u4661:
  1807     0B1E  2B2A               	goto	l117
  1808     0B1F                     u4660:
  1809     0B1F                     l3666:
  1810     0B1F  3044               	movlw	68
  1811     0B20  066E               	xorwf	_operational_mode,w
  1812     0B21  1D03               	btfss	3,2
  1813     0B22  2B24               	goto	u4671
  1814     0B23  2B25               	goto	u4670
  1815     0B24                     u4671:
  1816     0B24  2B2A               	goto	l117
  1817     0B25                     u4670:
  1818     0B25                     l3668:
  1819                           
  1820                           ;main.c: 48:        };main.c: 49:        switch(operational_mode)
  1821     0B25  3004               	movlw	4
  1822     0B26  00EE               	movwf	_operational_mode
  1823                           
  1824                           ;main.c: 50:        {
  1825     0B27  1512               	bsf	18,2	;volatile
  1826                           
  1827                           ;main.c: 51:            case 0x01:
  1828     0B28  1507               	bsf	7,2	;volatile
  1829     0B29  2B56               	goto	l3686
  1830     0B2A                     l117:
  1831                           
  1832                           ;main.c: 53:                 break;
  1833     0B2A  2B56               	goto	l3686
  1834     0B2B                     l3670:
  1835                           
  1836                           ;main.c: 56:                break;
  1837     0B2B  0863               	movf	main@key,w
  1838     0B2C  120A  158A  236A  120A  158A  	fcall	_washing_program_display
  1839                           
  1840                           ;main.c: 57:            case 0x03:
  1841     0B31  2AAE               	goto	l3636
  1842     0B32                     l3672:
  1843                           
  1844                           ;main.c: 59: 
  1845     0B32  0863               	movf	main@key,w
  1846     0B33  120A  158A  2129  120A  158A  	fcall	_water_level_screen
  1847                           
  1848                           ;main.c: 60: 
  1849     0B38  2AAE               	goto	l3636
  1850     0B39                     l3674:
  1851                           
  1852                           ;main.c: 62:                {;main.c: 65:                }
  1853     0B39  302F               	movlw	47
  1854     0B3A  0663               	xorwf	main@key,w
  1855     0B3B  1D03               	btfss	3,2
  1856     0B3C  2B3E               	goto	u4681
  1857     0B3D  2B3F               	goto	u4680
  1858     0B3E                     u4681:
  1859     0B3E  2B44               	goto	l3678
  1860     0B3F                     u4680:
  1861     0B3F                     l3676:
  1862                           
  1863                           ;main.c: 66:                else if(key == 0x1F);main.c: 67:                {
  1864     0B3F  3004               	movlw	4
  1865     0B40  00EE               	movwf	_operational_mode
  1866                           
  1867                           ;main.c: 68:                  operational_mode = 0x01;
  1868     0B41  3033               	movlw	51
  1869     0B42  00ED               	movwf	_reset_flag
  1870                           
  1871                           ;main.c: 69:                  reset_flag = 0x11;
  1872     0B43  2AAE               	goto	l3636
  1873     0B44                     l3678:
  1874     0B44  301F               	movlw	31
  1875     0B45  0663               	xorwf	main@key,w
  1876     0B46  1D03               	btfss	3,2
  1877     0B47  2B49               	goto	u4691
  1878     0B48  2B4A               	goto	u4690
  1879     0B49                     u4691:
  1880     0B49  2B66               	goto	l123
  1881     0B4A                     u4690:
  1882     0B4A                     l3680:
  1883                           
  1884                           ;main.c: 71:                };main.c: 72:            }
  1885     0B4A  3001               	movlw	1
  1886     0B4B  00EE               	movwf	_operational_mode
  1887                           
  1888                           ;main.c: 73:                break;
  1889     0B4C  3011               	movlw	17
  1890     0B4D  00ED               	movwf	_reset_flag
  1891     0B4E  2AAE               	goto	l3636
  1892     0B4F                     l3682:
  1893                           
  1894                           ;main.c: 79: 
  1895     0B4F  0863               	movf	main@key,w
  1896     0B50  120A  118A  2046  120A  158A  	fcall	_run_program
  1897                           
  1898                           ;main.c: 80: 
  1899     0B55  2AAE               	goto	l3636
  1900     0B56                     l3686:
  1901     0B56  1283               	bcf	3,5	;RP0=0, select bank0
  1902     0B57  1303               	bcf	3,6	;RP1=0, select bank0
  1903     0B58  086E               	movf	_operational_mode,w
  1904                           
  1905                           ; Switch size 1, requested type "simple"
  1906                           ; Number of cases is 4, Range of values is 1 to 4
  1907                           ; switch strategies available:
  1908                           ; Name         Instructions Cycles
  1909                           ; simple_byte           13     7 (average)
  1910                           ; direct_byte           23    11 (fixed)
  1911                           ; jumptable            263     9 (fixed)
  1912                           ;	Chosen strategy is simple_byte
  1913     0B59  3A01               	xorlw	1	; case 1
  1914     0B5A  1903               	skipnz
  1915     0B5B  2B2B               	goto	l3670
  1916     0B5C  3A03               	xorlw	3	; case 2
  1917     0B5D  1903               	skipnz
  1918     0B5E  2B32               	goto	l3672
  1919     0B5F  3A01               	xorlw	1	; case 3
  1920     0B60  1903               	skipnz
  1921     0B61  2B39               	goto	l3674
  1922     0B62  3A07               	xorlw	7	; case 4
  1923     0B63  1903               	skipnz
  1924     0B64  2B4F               	goto	l3682
  1925     0B65  2AAE               	goto	l3636
  1926     0B66                     l123:
  1927     0B66  2AAE               	goto	l3636
  1928     0B67  120A  118A  280C   	ljmp	start
  1929     0B6A                     __end_of_main:
  1930                           
  1931                           	psect	text1
  1932     0929                     __ptext1:	
  1933 ;; *************** function _water_level_screen *****************
  1934 ;; Defined at:
  1935 ;;		line 62 in file "washing_machine_function_def.c"
  1936 ;; Parameters:    Size  Location     Type
  1937 ;;  key             1    wreg     unsigned char 
  1938 ;; Auto vars:     Size  Location     Type
  1939 ;;  key             1    3[BANK0 ] unsigned char 
  1940 ;; Return value:  Size  Location     Type
  1941 ;;                  1    wreg      void 
  1942 ;; Registers used:
  1943 ;;		wreg, fsr0l, fsr0h, status,2, status,0, btemp+1, pclath, cstack
  1944 ;; Tracked objects:
  1945 ;;		On entry : 0/0
  1946 ;;		On exit  : 0/0
  1947 ;;		Unchanged: 0/0
  1948 ;; Data sizes:     COMMON   BANK0   BANK1   BANK3   BANK2
  1949 ;;      Params:         0       0       0       0       0
  1950 ;;      Locals:         0       1       0       0       0
  1951 ;;      Temps:          2       0       0       0       0
  1952 ;;      Totals:         2       1       0       0       0
  1953 ;;Total ram usage:        3 bytes
  1954 ;; Hardware stack levels used: 1
  1955 ;; Hardware stack levels required when called: 3
  1956 ;; This function calls:
  1957 ;;		___awmod
  1958 ;;		_clcd_print
  1959 ;;		_clear_screen
  1960 ;; This function is called by:
  1961 ;;		_main
  1962 ;; This function uses a non-reentrant model
  1963 ;;
  1964                           
  1965     0929                     _water_level_screen:	
  1966                           ;psect for function _water_level_screen
  1967                           
  1968                           
  1969                           ;incstack = 0
  1970                           ; Regs used in _water_level_screen: [wreg-fsr0h+status,2+status,0+btemp+1+pclath+cstack]
  1971                           ;water_level_screen@key stored from wreg
  1972     0929  1283               	bcf	3,5	;RP0=0, select bank0
  1973     092A  1303               	bcf	3,6	;RP1=0, select bank0
  1974     092B  00A3               	movwf	water_level_screen@key
  1975     092C                     l3484:
  1976                           
  1977                           ;washing_machine_function_def.c: 62: void water_level_screen(unsigned char key);washing_
      +                          machine_function_def.c: 63: {;washing_machine_function_def.c: 64:     if(reset_flag == 0
      +                          x22)
  1978     092C  3022               	movlw	34
  1979     092D  066D               	xorwf	_reset_flag,w
  1980     092E  1D03               	btfss	3,2
  1981     092F  2931               	goto	u4471
  1982     0930  2932               	goto	u4470
  1983     0931                     u4471:
  1984     0931  293B               	goto	l3490
  1985     0932                     u4470:
  1986     0932                     l3486:
  1987                           
  1988                           ;washing_machine_function_def.c: 65:     {;washing_machine_function_def.c: 66:         c
      +                          lear_screen();
  1989     0932  160A  118A  24E7  120A  158A  	fcall	_clear_screen
  1990     0937                     l3488:
  1991                           
  1992                           ;washing_machine_function_def.c: 67:         reset_flag = 0xFF;
  1993     0937  30FF               	movlw	255
  1994     0938  1283               	bcf	3,5	;RP0=0, select bank0
  1995     0939  1303               	bcf	3,6	;RP1=0, select bank0
  1996     093A  00ED               	movwf	_reset_flag
  1997     093B                     l3490:
  1998                           
  1999                           ;washing_machine_function_def.c: 69:     if(key == 0x37)
  2000     093B  3037               	movlw	55
  2001     093C  0623               	xorwf	water_level_screen@key,w
  2002     093D  1D03               	btfss	3,2
  2003     093E  2940               	goto	u4481
  2004     093F  2941               	goto	u4480
  2005     0940                     u4481:
  2006     0940  294F               	goto	l3500
  2007     0941                     u4480:
  2008     0941                     l3492:
  2009                           
  2010                           ;washing_machine_function_def.c: 70:     {;washing_machine_function_def.c: 71:         c
      +                          lear_screen();
  2011     0941  160A  118A  24E7  120A  158A  	fcall	_clear_screen
  2012     0946                     l3494:
  2013                           
  2014                           ;washing_machine_function_def.c: 72:         level++;
  2015     0946  3001               	movlw	1
  2016     0947  07FA               	addwf	_level,f
  2017     0948                     l3496:
  2018                           
  2019                           ;washing_machine_function_def.c: 73:         if(level == 5)
  2020     0948  3005               	movlw	5
  2021     0949  067A               	xorwf	_level,w
  2022     094A  1D03               	btfss	3,2
  2023     094B  294D               	goto	u4491
  2024     094C  294E               	goto	u4490
  2025     094D                     u4491:
  2026     094D  294F               	goto	l3500
  2027     094E                     u4490:
  2028     094E                     l3498:
  2029                           
  2030                           ;washing_machine_function_def.c: 74:         {;washing_machine_function_def.c: 75:      
      +                                 level = 0;
  2031     094E  01FA               	clrf	_level
  2032     094F                     l3500:
  2033                           
  2034                           ;washing_machine_function_def.c: 78:     clcd_print("WATER_LEVEL:", (0x80 + 0));
  2035     094F  306D               	movlw	low (STR_27| (0+32768))
  2036     0950  1283               	bcf	3,5	;RP0=0, select bank0
  2037     0951  1303               	bcf	3,6	;RP1=0, select bank0
  2038     0952  00A0               	movwf	clcd_print@str
  2039     0953  3090               	movlw	high (STR_27| (0+32768))
  2040     0954  00A1               	movwf	clcd_print@str+1
  2041     0955  3080               	movlw	128
  2042     0956  00A2               	movwf	clcd_print@addr
  2043     0957  120A  158A  2012  120A  158A  	fcall	_clcd_print
  2044     095C                     l3502:
  2045                           
  2046                           ;washing_machine_function_def.c: 79:     clcd_print("*", (0xC0 + 0));
  2047     095C  306D               	movlw	low (STR_28| (0+32768))
  2048     095D  1283               	bcf	3,5	;RP0=0, select bank0
  2049     095E  1303               	bcf	3,6	;RP1=0, select bank0
  2050     095F  00A0               	movwf	clcd_print@str
  2051     0960  3091               	movlw	high (STR_28| (0+32768))
  2052     0961  00A1               	movwf	clcd_print@str+1
  2053     0962  30C0               	movlw	192
  2054     0963  00A2               	movwf	clcd_print@addr
  2055     0964  120A  158A  2012  120A  158A  	fcall	_clcd_print
  2056     0969                     l3504:
  2057                           
  2058                           ;washing_machine_function_def.c: 80:     clcd_print(water_level[level], (0xC0 + 2));
  2059     0969  087A               	movf	_level,w
  2060     096A  00F8               	movwf	??_water_level_screen
  2061     096B  0778               	addwf	??_water_level_screen,w
  2062     096C  3EB8               	addlw	(low (_water_level| 0))& (0+255)
  2063     096D  0084               	movwf	4
  2064     096E  1383               	bcf	3,7	;select IRP bank1
  2065     096F  0800               	movf	0,w
  2066     0970  1283               	bcf	3,5	;RP0=0, select bank0
  2067     0971  1303               	bcf	3,6	;RP1=0, select bank0
  2068     0972  00A0               	movwf	clcd_print@str
  2069     0973  0A84               	incf	4,f
  2070     0974  0800               	movf	0,w
  2071     0975  0384               	decf	4,f
  2072     0976  00A1               	movwf	clcd_print@str+1
  2073     0977  30C2               	movlw	194
  2074     0978  00A2               	movwf	clcd_print@addr
  2075     0979  120A  158A  2012  120A  158A  	fcall	_clcd_print
  2076     097E                     l3506:
  2077                           
  2078                           ;washing_machine_function_def.c: 81:     clcd_print(water_level[(level+1)%5], (0x90 + 2)
      +                          );
  2079     097E  3005               	movlw	5
  2080     097F  00F2               	movwf	___awmod@divisor
  2081     0980  3000               	movlw	0
  2082     0981  00F3               	movwf	___awmod@divisor+1
  2083     0982  087A               	movf	_level,w
  2084     0983  3E01               	addlw	1
  2085     0984  00F4               	movwf	___awmod@dividend
  2086     0985  3000               	movlw	0
  2087     0986  1803               	skipnc
  2088     0987  3001               	movlw	1
  2089     0988  00F5               	movwf	___awmod@dividend+1
  2090     0989  160A  118A  2680  120A  158A  	fcall	___awmod
  2091     098E  0872               	movf	?___awmod,w
  2092     098F  00F8               	movwf	??_water_level_screen
  2093     0990  0778               	addwf	??_water_level_screen,w
  2094     0991  3EB8               	addlw	(low (_water_level| 0))& (0+255)
  2095     0992  0084               	movwf	4
  2096     0993  1383               	bcf	3,7	;select IRP bank1
  2097     0994  0800               	movf	0,w
  2098     0995  1283               	bcf	3,5	;RP0=0, select bank0
  2099     0996  1303               	bcf	3,6	;RP1=0, select bank0
  2100     0997  00A0               	movwf	clcd_print@str
  2101     0998  0A84               	incf	4,f
  2102     0999  0800               	movf	0,w
  2103     099A  0384               	decf	4,f
  2104     099B  00A1               	movwf	clcd_print@str+1
  2105     099C  3092               	movlw	146
  2106     099D  00A2               	movwf	clcd_print@addr
  2107     099E  120A  158A  2012  120A  158A  	fcall	_clcd_print
  2108     09A3                     l3508:
  2109                           
  2110                           ;washing_machine_function_def.c: 82:     clcd_print(water_level[(level+2)%5], (0xD0 + 2)
      +                          );
  2111     09A3  3005               	movlw	5
  2112     09A4  00F2               	movwf	___awmod@divisor
  2113     09A5  3000               	movlw	0
  2114     09A6  00F3               	movwf	___awmod@divisor+1
  2115     09A7  087A               	movf	_level,w
  2116     09A8  3E02               	addlw	2
  2117     09A9  00F4               	movwf	___awmod@dividend
  2118     09AA  3000               	movlw	0
  2119     09AB  1803               	skipnc
  2120     09AC  3001               	movlw	1
  2121     09AD  00F5               	movwf	___awmod@dividend+1
  2122     09AE  160A  118A  2680  120A  158A  	fcall	___awmod
  2123     09B3  0872               	movf	?___awmod,w
  2124     09B4  00F8               	movwf	??_water_level_screen
  2125     09B5  0778               	addwf	??_water_level_screen,w
  2126     09B6  3EB8               	addlw	(low (_water_level| 0))& (0+255)
  2127     09B7  0084               	movwf	4
  2128     09B8  1383               	bcf	3,7	;select IRP bank1
  2129     09B9  0800               	movf	0,w
  2130     09BA  1283               	bcf	3,5	;RP0=0, select bank0
  2131     09BB  1303               	bcf	3,6	;RP1=0, select bank0
  2132     09BC  00A0               	movwf	clcd_print@str
  2133     09BD  0A84               	incf	4,f
  2134     09BE  0800               	movf	0,w
  2135     09BF  0384               	decf	4,f
  2136     09C0  00A1               	movwf	clcd_print@str+1
  2137     09C1  30D2               	movlw	210
  2138     09C2  00A2               	movwf	clcd_print@addr
  2139     09C3  120A  158A  2012  120A  158A  	fcall	_clcd_print
  2140     09C8                     l211:
  2141     09C8  0008               	return
  2142     09C9                     __end_of_water_level_screen:
  2143                           
  2144                           	psect	text2
  2145     0B6A                     __ptext2:	
  2146 ;; *************** function _washing_program_display *****************
  2147 ;; Defined at:
  2148 ;;		line 27 in file "washing_machine_function_def.c"
  2149 ;; Parameters:    Size  Location     Type
  2150 ;;  key             1    wreg     unsigned char 
  2151 ;; Auto vars:     Size  Location     Type
  2152 ;;  key             1    5[BANK0 ] unsigned char 
  2153 ;; Return value:  Size  Location     Type
  2154 ;;                  1    wreg      void 
  2155 ;; Registers used:
  2156 ;;		wreg, fsr0l, fsr0h, status,2, status,0, btemp+1, pclath, cstack
  2157 ;; Tracked objects:
  2158 ;;		On entry : 0/0
  2159 ;;		On exit  : 0/0
  2160 ;;		Unchanged: 0/0
  2161 ;; Data sizes:     COMMON   BANK0   BANK1   BANK3   BANK2
  2162 ;;      Params:         0       0       0       0       0
  2163 ;;      Locals:         0       1       0       0       0
  2164 ;;      Temps:          0       2       0       0       0
  2165 ;;      Totals:         0       3       0       0       0
  2166 ;;Total ram usage:        3 bytes
  2167 ;; Hardware stack levels used: 1
  2168 ;; Hardware stack levels required when called: 3
  2169 ;; This function calls:
  2170 ;;		_clcd_print
  2171 ;;		_clcd_putch
  2172 ;;		_clear_screen
  2173 ;; This function is called by:
  2174 ;;		_main
  2175 ;; This function uses a non-reentrant model
  2176 ;;
  2177                           
  2178     0B6A                     _washing_program_display:	
  2179                           ;psect for function _washing_program_display
  2180                           
  2181                           
  2182                           ;incstack = 0
  2183                           ; Regs used in _washing_program_display: [wreg-fsr0h+status,2+status,0+btemp+1+pclath+cs
      +                          tack]
  2184                           ;washing_program_display@key stored from wreg
  2185     0B6A  1283               	bcf	3,5	;RP0=0, select bank0
  2186     0B6B  1303               	bcf	3,6	;RP1=0, select bank0
  2187     0B6C  00A5               	movwf	washing_program_display@key
  2188     0B6D                     l3452:
  2189                           
  2190                           ;washing_machine_function_def.c: 27: void washing_program_display(unsigned char key);was
      +                          hing_machine_function_def.c: 28: {;washing_machine_function_def.c: 29:     if(reset_flag
      +                           == 0x11)
  2191     0B6D  3011               	movlw	17
  2192     0B6E  066D               	xorwf	_reset_flag,w
  2193     0B6F  1D03               	btfss	3,2
  2194     0B70  2B72               	goto	u4411
  2195     0B71  2B73               	goto	u4410
  2196     0B72                     u4411:
  2197     0B72  2B7C               	goto	l3458
  2198     0B73                     u4410:
  2199     0B73                     l3454:
  2200                           
  2201                           ;washing_machine_function_def.c: 30:     {;washing_machine_function_def.c: 31:     clear
      +                          _screen();
  2202     0B73  160A  118A  24E7  120A  158A  	fcall	_clear_screen
  2203     0B78                     l3456:
  2204                           
  2205                           ;washing_machine_function_def.c: 32:     reset_flag = 0xFF;
  2206     0B78  30FF               	movlw	255
  2207     0B79  1283               	bcf	3,5	;RP0=0, select bank0
  2208     0B7A  1303               	bcf	3,6	;RP1=0, select bank0
  2209     0B7B  00ED               	movwf	_reset_flag
  2210     0B7C                     l3458:
  2211                           
  2212                           ;washing_machine_function_def.c: 34:     if(key == 0x37){
  2213     0B7C  3037               	movlw	55
  2214     0B7D  0625               	xorwf	washing_program_display@key,w
  2215     0B7E  1D03               	btfss	3,2
  2216     0B7F  2B81               	goto	u4421
  2217     0B80  2B82               	goto	u4420
  2218     0B81                     u4421:
  2219     0B81  2B92               	goto	l3468
  2220     0B82                     u4420:
  2221     0B82                     l3460:
  2222                           
  2223                           ;washing_machine_function_def.c: 35:         clear_screen();
  2224     0B82  160A  118A  24E7  120A  158A  	fcall	_clear_screen
  2225     0B87                     l3462:
  2226                           
  2227                           ;washing_machine_function_def.c: 36:         program_no++;
  2228     0B87  3001               	movlw	1
  2229     0B88  1283               	bcf	3,5	;RP0=0, select bank0
  2230     0B89  1303               	bcf	3,6	;RP1=0, select bank0
  2231     0B8A  07EB               	addwf	_program_no,f
  2232     0B8B                     l3464:
  2233                           
  2234                           ;washing_machine_function_def.c: 37:         if(program_no == 12)
  2235     0B8B  300C               	movlw	12
  2236     0B8C  066B               	xorwf	_program_no,w
  2237     0B8D  1D03               	btfss	3,2
  2238     0B8E  2B90               	goto	u4431
  2239     0B8F  2B91               	goto	u4430
  2240     0B90                     u4431:
  2241     0B90  2B92               	goto	l3468
  2242     0B91                     u4430:
  2243     0B91                     l3466:
  2244                           
  2245                           ;washing_machine_function_def.c: 38:         {;washing_machine_function_def.c: 39:      
      +                                 program_no = 0;
  2246     0B91  01EB               	clrf	_program_no
  2247     0B92                     l3468:
  2248                           
  2249                           ;washing_machine_function_def.c: 43:     clcd_print("Washing Program",(0x80 + 0));
  2250     0B92  3022               	movlw	low (STR_26| (0+32768))
  2251     0B93  00A0               	movwf	clcd_print@str
  2252     0B94  3090               	movlw	high (STR_26| (0+32768))
  2253     0B95  00A1               	movwf	clcd_print@str+1
  2254     0B96  3080               	movlw	128
  2255     0B97  00A2               	movwf	clcd_print@addr
  2256     0B98  120A  158A  2012  120A  158A  	fcall	_clcd_print
  2257     0B9D                     l3470:
  2258                           
  2259                           ;washing_machine_function_def.c: 44:     clcd_putch('*' ,(0xC0 + 0) );
  2260     0B9D  30C0               	movlw	192
  2261     0B9E  1283               	bcf	3,5	;RP0=0, select bank0
  2262     0B9F  1303               	bcf	3,6	;RP1=0, select bank0
  2263     0BA0  00A0               	movwf	clcd_putch@addr
  2264     0BA1  302A               	movlw	42
  2265     0BA2  160A  118A  251E  120A  158A  	fcall	_clcd_putch
  2266     0BA7                     l3472:
  2267                           
  2268                           ;washing_machine_function_def.c: 45:     if(program_no <= 9)
  2269     0BA7  300A               	movlw	10
  2270     0BA8  1283               	bcf	3,5	;RP0=0, select bank0
  2271     0BA9  1303               	bcf	3,6	;RP1=0, select bank0
  2272     0BAA  026B               	subwf	_program_no,w
  2273     0BAB  1803               	skipnc
  2274     0BAC  2BAE               	goto	u4441
  2275     0BAD  2BAF               	goto	u4440
  2276     0BAE                     u4441:
  2277     0BAE  2BED               	goto	l3476
  2278     0BAF                     u4440:
  2279     0BAF                     l3474:
  2280                           
  2281                           ;washing_machine_function_def.c: 46:     {;washing_machine_function_def.c: 47:         c
      +                          lcd_print(washing_program[program_no], (0xC0 + 1));
  2282     0BAF  086B               	movf	_program_no,w
  2283     0BB0  00A3               	movwf	??_washing_program_display
  2284     0BB1  0723               	addwf	??_washing_program_display,w
  2285     0BB2  3EA0               	addlw	(low (_washing_program| 0))& (0+255)
  2286     0BB3  0084               	movwf	4
  2287     0BB4  1383               	bcf	3,7	;select IRP bank1
  2288     0BB5  0800               	movf	0,w
  2289     0BB6  00A0               	movwf	clcd_print@str
  2290     0BB7  0A84               	incf	4,f
  2291     0BB8  0800               	movf	0,w
  2292     0BB9  0384               	decf	4,f
  2293     0BBA  00A1               	movwf	clcd_print@str+1
  2294     0BBB  30C1               	movlw	193
  2295     0BBC  00A2               	movwf	clcd_print@addr
  2296     0BBD  120A  158A  2012  120A  158A  	fcall	_clcd_print
  2297                           
  2298                           ;washing_machine_function_def.c: 48:         clcd_print(washing_program[program_no + 1],
      +                           (0x90 + 1));
  2299     0BC2  1283               	bcf	3,5	;RP0=0, select bank0
  2300     0BC3  1303               	bcf	3,6	;RP1=0, select bank0
  2301     0BC4  086B               	movf	_program_no,w
  2302     0BC5  00A3               	movwf	??_washing_program_display
  2303     0BC6  0723               	addwf	??_washing_program_display,w
  2304     0BC7  3EA2               	addlw	(low ((_washing_program| 0+2)))& (0+255)
  2305     0BC8  0084               	movwf	4
  2306     0BC9  1383               	bcf	3,7	;select IRP bank1
  2307     0BCA  0800               	movf	0,w
  2308     0BCB  00A0               	movwf	clcd_print@str
  2309     0BCC  0A84               	incf	4,f
  2310     0BCD  0800               	movf	0,w
  2311     0BCE  0384               	decf	4,f
  2312     0BCF  00A1               	movwf	clcd_print@str+1
  2313     0BD0  3091               	movlw	145
  2314     0BD1  00A2               	movwf	clcd_print@addr
  2315     0BD2  120A  158A  2012  120A  158A  	fcall	_clcd_print
  2316                           
  2317                           ;washing_machine_function_def.c: 49:         clcd_print(washing_program[program_no + 2],
      +                           (0xD0 + 1));
  2318     0BD7  1283               	bcf	3,5	;RP0=0, select bank0
  2319     0BD8  1303               	bcf	3,6	;RP1=0, select bank0
  2320     0BD9  086B               	movf	_program_no,w
  2321     0BDA  00A3               	movwf	??_washing_program_display
  2322     0BDB  0723               	addwf	??_washing_program_display,w
  2323     0BDC  3EA4               	addlw	(low ((_washing_program| 0+4)))& (0+255)
  2324     0BDD  0084               	movwf	4
  2325     0BDE  1383               	bcf	3,7	;select IRP bank1
  2326     0BDF  0800               	movf	0,w
  2327     0BE0  00A0               	movwf	clcd_print@str
  2328     0BE1  0A84               	incf	4,f
  2329     0BE2  0800               	movf	0,w
  2330     0BE3  0384               	decf	4,f
  2331     0BE4  00A1               	movwf	clcd_print@str+1
  2332     0BE5  30D1               	movlw	209
  2333     0BE6  00A2               	movwf	clcd_print@addr
  2334     0BE7  120A  158A  2012  120A  158A  	fcall	_clcd_print
  2335                           
  2336                           ;washing_machine_function_def.c: 50:     } else if (program_no == 10) {
  2337     0BEC  2C6E               	goto	l205
  2338     0BED                     l3476:
  2339     0BED  300A               	movlw	10
  2340     0BEE  066B               	xorwf	_program_no,w
  2341     0BEF  1D03               	btfss	3,2
  2342     0BF0  2BF2               	goto	u4451
  2343     0BF1  2BF3               	goto	u4450
  2344     0BF2                     u4451:
  2345     0BF2  2C2F               	goto	l3480
  2346     0BF3                     u4450:
  2347     0BF3                     l3478:
  2348                           
  2349                           ;washing_machine_function_def.c: 51:         clcd_print(washing_program[program_no], (0x
      +                          C0 + 1));
  2350     0BF3  086B               	movf	_program_no,w
  2351     0BF4  00A3               	movwf	??_washing_program_display
  2352     0BF5  0723               	addwf	??_washing_program_display,w
  2353     0BF6  3EA0               	addlw	(low (_washing_program| 0))& (0+255)
  2354     0BF7  0084               	movwf	4
  2355     0BF8  1383               	bcf	3,7	;select IRP bank1
  2356     0BF9  0800               	movf	0,w
  2357     0BFA  00A0               	movwf	clcd_print@str
  2358     0BFB  0A84               	incf	4,f
  2359     0BFC  0800               	movf	0,w
  2360     0BFD  0384               	decf	4,f
  2361     0BFE  00A1               	movwf	clcd_print@str+1
  2362     0BFF  30C1               	movlw	193
  2363     0C00  00A2               	movwf	clcd_print@addr
  2364     0C01  120A  158A  2012  120A  158A  	fcall	_clcd_print
  2365                           
  2366                           ;washing_machine_function_def.c: 52:         clcd_print(washing_program[program_no + 1],
      +                           (0x90 + 1));
  2367     0C06  1283               	bcf	3,5	;RP0=0, select bank0
  2368     0C07  1303               	bcf	3,6	;RP1=0, select bank0
  2369     0C08  086B               	movf	_program_no,w
  2370     0C09  00A3               	movwf	??_washing_program_display
  2371     0C0A  0723               	addwf	??_washing_program_display,w
  2372     0C0B  3EA2               	addlw	(low ((_washing_program| 0+2)))& (0+255)
  2373     0C0C  0084               	movwf	4
  2374     0C0D  1383               	bcf	3,7	;select IRP bank1
  2375     0C0E  0800               	movf	0,w
  2376     0C0F  00A0               	movwf	clcd_print@str
  2377     0C10  0A84               	incf	4,f
  2378     0C11  0800               	movf	0,w
  2379     0C12  0384               	decf	4,f
  2380     0C13  00A1               	movwf	clcd_print@str+1
  2381     0C14  3091               	movlw	145
  2382     0C15  00A2               	movwf	clcd_print@addr
  2383     0C16  120A  158A  2012  120A  158A  	fcall	_clcd_print
  2384                           
  2385                           ;washing_machine_function_def.c: 53:         clcd_print(washing_program[0], (0xD0 + 1));
  2386     0C1B  1683               	bsf	3,5	;RP0=1, select bank1
  2387     0C1C  1303               	bcf	3,6	;RP1=0, select bank1
  2388     0C1D  0820               	movf	_washing_program^(0+128),w
  2389     0C1E  1283               	bcf	3,5	;RP0=0, select bank0
  2390     0C1F  1303               	bcf	3,6	;RP1=0, select bank0
  2391     0C20  00A0               	movwf	clcd_print@str
  2392     0C21  1683               	bsf	3,5	;RP0=1, select bank1
  2393     0C22  1303               	bcf	3,6	;RP1=0, select bank1
  2394     0C23  0821               	movf	(_washing_program+1)^(0+128),w
  2395     0C24  1283               	bcf	3,5	;RP0=0, select bank0
  2396     0C25  1303               	bcf	3,6	;RP1=0, select bank0
  2397     0C26  00A1               	movwf	clcd_print@str+1
  2398     0C27  30D1               	movlw	209
  2399     0C28  00A2               	movwf	clcd_print@addr
  2400     0C29  120A  158A  2012  120A  158A  	fcall	_clcd_print
  2401                           
  2402                           ;washing_machine_function_def.c: 54:     } else if (program_no == 11) {
  2403     0C2E  2C6E               	goto	l205
  2404     0C2F                     l3480:
  2405     0C2F  300B               	movlw	11
  2406     0C30  066B               	xorwf	_program_no,w
  2407     0C31  1D03               	btfss	3,2
  2408     0C32  2C34               	goto	u4461
  2409     0C33  2C35               	goto	u4460
  2410     0C34                     u4461:
  2411     0C34  2C6E               	goto	l205
  2412     0C35                     u4460:
  2413     0C35                     l3482:
  2414                           
  2415                           ;washing_machine_function_def.c: 55:         clcd_print(washing_program[program_no], (0x
      +                          C0 + 1));
  2416     0C35  086B               	movf	_program_no,w
  2417     0C36  00A3               	movwf	??_washing_program_display
  2418     0C37  0723               	addwf	??_washing_program_display,w
  2419     0C38  3EA0               	addlw	(low (_washing_program| 0))& (0+255)
  2420     0C39  0084               	movwf	4
  2421     0C3A  1383               	bcf	3,7	;select IRP bank1
  2422     0C3B  0800               	movf	0,w
  2423     0C3C  00A0               	movwf	clcd_print@str
  2424     0C3D  0A84               	incf	4,f
  2425     0C3E  0800               	movf	0,w
  2426     0C3F  0384               	decf	4,f
  2427     0C40  00A1               	movwf	clcd_print@str+1
  2428     0C41  30C1               	movlw	193
  2429     0C42  00A2               	movwf	clcd_print@addr
  2430     0C43  120A  158A  2012  120A  158A  	fcall	_clcd_print
  2431                           
  2432                           ;washing_machine_function_def.c: 56:         clcd_print(washing_program[0], (0x90 + 1));
  2433     0C48  1683               	bsf	3,5	;RP0=1, select bank1
  2434     0C49  1303               	bcf	3,6	;RP1=0, select bank1
  2435     0C4A  0820               	movf	_washing_program^(0+128),w
  2436     0C4B  1283               	bcf	3,5	;RP0=0, select bank0
  2437     0C4C  1303               	bcf	3,6	;RP1=0, select bank0
  2438     0C4D  00A0               	movwf	clcd_print@str
  2439     0C4E  1683               	bsf	3,5	;RP0=1, select bank1
  2440     0C4F  1303               	bcf	3,6	;RP1=0, select bank1
  2441     0C50  0821               	movf	(_washing_program+1)^(0+128),w
  2442     0C51  1283               	bcf	3,5	;RP0=0, select bank0
  2443     0C52  1303               	bcf	3,6	;RP1=0, select bank0
  2444     0C53  00A1               	movwf	clcd_print@str+1
  2445     0C54  3091               	movlw	145
  2446     0C55  00A2               	movwf	clcd_print@addr
  2447     0C56  120A  158A  2012  120A  158A  	fcall	_clcd_print
  2448                           
  2449                           ;washing_machine_function_def.c: 57:         clcd_print(washing_program[1], (0xD0 + 1));
  2450     0C5B  1683               	bsf	3,5	;RP0=1, select bank1
  2451     0C5C  1303               	bcf	3,6	;RP1=0, select bank1
  2452     0C5D  0822               	movf	(low ((_washing_program| 0+2)))^(0+128),w
  2453     0C5E  1283               	bcf	3,5	;RP0=0, select bank0
  2454     0C5F  1303               	bcf	3,6	;RP1=0, select bank0
  2455     0C60  00A0               	movwf	clcd_print@str
  2456     0C61  1683               	bsf	3,5	;RP0=1, select bank1
  2457     0C62  1303               	bcf	3,6	;RP1=0, select bank1
  2458     0C63  0823               	movf	((low ((_washing_program| 0+2))+1))^(0+128),w
  2459     0C64  1283               	bcf	3,5	;RP0=0, select bank0
  2460     0C65  1303               	bcf	3,6	;RP1=0, select bank0
  2461     0C66  00A1               	movwf	clcd_print@str+1
  2462     0C67  30D1               	movlw	209
  2463     0C68  00A2               	movwf	clcd_print@addr
  2464     0C69  120A  158A  2012  120A  158A  	fcall	_clcd_print
  2465     0C6E                     l205:
  2466     0C6E  0008               	return
  2467     0C6F                     __end_of_washing_program_display:
  2468                           
  2469                           	psect	text3
  2470     0C6F                     __ptext3:	
  2471 ;; *************** function _set_time *****************
  2472 ;; Defined at:
  2473 ;;		line 177 in file "washing_machine_function_def.c"
  2474 ;; Parameters:    Size  Location     Type
  2475 ;;		None
  2476 ;; Auto vars:     Size  Location     Type
  2477 ;;		None
  2478 ;; Return value:  Size  Location     Type
  2479 ;;                  1    wreg      void 
  2480 ;; Registers used:
  2481 ;;		wreg, fsr0l, fsr0h, status,2, status,0
  2482 ;; Tracked objects:
  2483 ;;		On entry : 0/0
  2484 ;;		On exit  : 0/0
  2485 ;;		Unchanged: 0/0
  2486 ;; Data sizes:     COMMON   BANK0   BANK1   BANK3   BANK2
  2487 ;;      Params:         0       0       0       0       0
  2488 ;;      Locals:         0       0       0       0       0
  2489 ;;      Temps:          0       0       0       0       0
  2490 ;;      Totals:         0       0       0       0       0
  2491 ;;Total ram usage:        0 bytes
  2492 ;; Hardware stack levels used: 1
  2493 ;; Hardware stack levels required when called: 1
  2494 ;; This function calls:
  2495 ;;		Nothing
  2496 ;; This function is called by:
  2497 ;;		_main
  2498 ;; This function uses a non-reentrant model
  2499 ;;
  2500                           
  2501     0C6F                     _set_time:	
  2502                           ;psect for function _set_time
  2503                           
  2504     0C6F                     l2768:	
  2505                           ;incstack = 0
  2506                           ; Regs used in _set_time: [wreg-fsr0h+status,2+status,0]
  2507                           
  2508                           
  2509                           ;washing_machine_function_def.c: 179:     switch(program_no)
  2510     0C6F  2D87               	goto	l2884
  2511     0C70                     l235:	
  2512                           ;washing_machine_function_def.c: 183:             {;washing_machine_function_def.c: 185:
      +                                          case 1:
  2513                           
  2514                           
  2515                           ;washing_machine_function_def.c: 186:                     sec = 33;
  2516     0C70  3021               	movlw	33
  2517     0C71  00EA               	movwf	_sec
  2518                           
  2519                           ;washing_machine_function_def.c: 187:                     break;
  2520     0C72  2DAF               	goto	l330
  2521     0C73                     l238:	
  2522                           ;washing_machine_function_def.c: 189:                 case 2:
  2523                           
  2524                           
  2525                           ;washing_machine_function_def.c: 190:                     sec = 41;
  2526     0C73  3029               	movlw	41
  2527     0C74  00EA               	movwf	_sec
  2528                           
  2529                           ;washing_machine_function_def.c: 191:                     break;
  2530     0C75  2DAF               	goto	l330
  2531     0C76                     l240:	
  2532                           ;washing_machine_function_def.c: 193:                 case 4:
  2533                           
  2534                           
  2535                           ;washing_machine_function_def.c: 194:                     sec = 45;
  2536     0C76  302D               	movlw	45
  2537     0C77  00EA               	movwf	_sec
  2538                           
  2539                           ;washing_machine_function_def.c: 195:                     break;
  2540     0C78  2DAF               	goto	l330
  2541     0C79                     l2772:
  2542     0C79  087A               	movf	_level,w
  2543                           
  2544                           ; Switch size 1, requested type "simple"
  2545                           ; Number of cases is 5, Range of values is 0 to 4
  2546                           ; switch strategies available:
  2547                           ; Name         Instructions Cycles
  2548                           ; simple_byte           16     9 (average)
  2549                           ; direct_byte           23     8 (fixed)
  2550                           ; jumptable            260     6 (fixed)
  2551                           ;	Chosen strategy is simple_byte
  2552     0C7A  3A00               	xorlw	0	; case 0
  2553     0C7B  1903               	skipnz
  2554     0C7C  2C73               	goto	l238
  2555     0C7D  3A01               	xorlw	1	; case 1
  2556     0C7E  1903               	skipnz
  2557     0C7F  2C70               	goto	l235
  2558     0C80  3A03               	xorlw	3	; case 2
  2559     0C81  1903               	skipnz
  2560     0C82  2C73               	goto	l238
  2561     0C83  3A01               	xorlw	1	; case 3
  2562     0C84  1903               	skipnz
  2563     0C85  2C76               	goto	l240
  2564     0C86  3A07               	xorlw	7	; case 4
  2565     0C87  1903               	skipnz
  2566     0C88  2C76               	goto	l240
  2567     0C89  2DAF               	goto	l330
  2568     0C8A                     l2774:
  2569                           
  2570                           ;washing_machine_function_def.c: 203:                     min = 0;
  2571     0C8A  01E9               	clrf	_min
  2572     0C8B                     l2776:
  2573                           
  2574                           ;washing_machine_function_def.c: 204:                     sec = 43;
  2575     0C8B  302B               	movlw	43
  2576     0C8C  00EA               	movwf	_sec
  2577                           
  2578                           ;washing_machine_function_def.c: 205:                     break;
  2579     0C8D  2DAF               	goto	l330
  2580     0C8E                     l2778:
  2581                           
  2582                           ;washing_machine_function_def.c: 208:                     min = 0;
  2583     0C8E  01E9               	clrf	_min
  2584     0C8F                     l2780:
  2585                           
  2586                           ;washing_machine_function_def.c: 209:                     sec = 50;
  2587     0C8F  3032               	movlw	50
  2588     0C90  00EA               	movwf	_sec
  2589                           
  2590                           ;washing_machine_function_def.c: 210:                     break;
  2591     0C91  2DAF               	goto	l330
  2592     0C92                     l2782:
  2593                           
  2594                           ;washing_machine_function_def.c: 213:                     min = 0;
  2595     0C92  01E9               	clrf	_min
  2596     0C93                     l2784:
  2597                           
  2598                           ;washing_machine_function_def.c: 214:                     sec = 57;
  2599     0C93  3039               	movlw	57
  2600     0C94  00EA               	movwf	_sec
  2601                           
  2602                           ;washing_machine_function_def.c: 215:                     break;
  2603     0C95  2DAF               	goto	l330
  2604     0C96                     l2788:
  2605     0C96  087A               	movf	_level,w
  2606                           
  2607                           ; Switch size 1, requested type "simple"
  2608                           ; Number of cases is 5, Range of values is 0 to 4
  2609                           ; switch strategies available:
  2610                           ; Name         Instructions Cycles
  2611                           ; simple_byte           16     9 (average)
  2612                           ; direct_byte           23     8 (fixed)
  2613                           ; jumptable            260     6 (fixed)
  2614                           ;	Chosen strategy is simple_byte
  2615     0C97  3A00               	xorlw	0	; case 0
  2616     0C98  1903               	skipnz
  2617     0C99  2C8E               	goto	l2778
  2618     0C9A  3A01               	xorlw	1	; case 1
  2619     0C9B  1903               	skipnz
  2620     0C9C  2C8A               	goto	l2774
  2621     0C9D  3A03               	xorlw	3	; case 2
  2622     0C9E  1903               	skipnz
  2623     0C9F  2C8E               	goto	l2778
  2624     0CA0  3A01               	xorlw	1	; case 3
  2625     0CA1  1903               	skipnz
  2626     0CA2  2C92               	goto	l2782
  2627     0CA3  3A07               	xorlw	7	; case 4
  2628     0CA4  1903               	skipnz
  2629     0CA5  2C92               	goto	l2782
  2630     0CA6  2DAF               	goto	l330
  2631     0CA7                     l2790:
  2632                           
  2633                           ;washing_machine_function_def.c: 224:                     min = 0;
  2634     0CA7  01E9               	clrf	_min
  2635     0CA8                     l2792:
  2636                           
  2637                           ;washing_machine_function_def.c: 225:                     sec = 26 ;
  2638     0CA8  301A               	movlw	26
  2639     0CA9  00EA               	movwf	_sec
  2640                           
  2641                           ;washing_machine_function_def.c: 226:                     break;
  2642     0CAA  2DAF               	goto	l330
  2643     0CAB                     l2794:
  2644                           
  2645                           ;washing_machine_function_def.c: 229:                     min = 0;
  2646     0CAB  01E9               	clrf	_min
  2647     0CAC                     l2796:
  2648                           
  2649                           ;washing_machine_function_def.c: 230:                     sec = 31;
  2650     0CAC  301F               	movlw	31
  2651     0CAD  00EA               	movwf	_sec
  2652                           
  2653                           ;washing_machine_function_def.c: 231:                     break;
  2654     0CAE  2DAF               	goto	l330
  2655     0CAF                     l2800:
  2656     0CAF  087A               	movf	_level,w
  2657                           
  2658                           ; Switch size 1, requested type "simple"
  2659                           ; Number of cases is 5, Range of values is 0 to 4
  2660                           ; switch strategies available:
  2661                           ; Name         Instructions Cycles
  2662                           ; simple_byte           16     9 (average)
  2663                           ; direct_byte           23     8 (fixed)
  2664                           ; jumptable            260     6 (fixed)
  2665                           ;	Chosen strategy is simple_byte
  2666     0CB0  3A00               	xorlw	0	; case 0
  2667     0CB1  1903               	skipnz
  2668     0CB2  2CA7               	goto	l2790
  2669     0CB3  3A01               	xorlw	1	; case 1
  2670     0CB4  1903               	skipnz
  2671     0CB5  2CA7               	goto	l2790
  2672     0CB6  3A03               	xorlw	3	; case 2
  2673     0CB7  1903               	skipnz
  2674     0CB8  2CA7               	goto	l2790
  2675     0CB9  3A01               	xorlw	1	; case 3
  2676     0CBA  1903               	skipnz
  2677     0CBB  2CAB               	goto	l2794
  2678     0CBC  3A07               	xorlw	7	; case 4
  2679     0CBD  1903               	skipnz
  2680     0CBE  2CAB               	goto	l2794
  2681     0CBF  2DAF               	goto	l330
  2682     0CC0                     l262:	
  2683                           ;washing_machine_function_def.c: 239:                 case 0:
  2684                           
  2685     0CC0                     l264:	
  2686                           ;washing_machine_function_def.c: 241:                 case 4:
  2687                           
  2688                           
  2689                           ;washing_machine_function_def.c: 242:                     min = 1;
  2690     0CC0  3001               	movlw	1
  2691     0CC1  00E9               	movwf	_min
  2692                           
  2693                           ;washing_machine_function_def.c: 243:                     sec = 16;
  2694     0CC2  3010               	movlw	16
  2695     0CC3  00EA               	movwf	_sec
  2696                           
  2697                           ;washing_machine_function_def.c: 244:                     break;
  2698     0CC4  2DAF               	goto	l330
  2699     0CC5                     l2804:
  2700     0CC5  087A               	movf	_level,w
  2701                           
  2702                           ; Switch size 1, requested type "simple"
  2703                           ; Number of cases is 5, Range of values is 0 to 4
  2704                           ; switch strategies available:
  2705                           ; Name         Instructions Cycles
  2706                           ; simple_byte           16     9 (average)
  2707                           ; direct_byte           23     8 (fixed)
  2708                           ; jumptable            260     6 (fixed)
  2709                           ;	Chosen strategy is simple_byte
  2710     0CC6  3A00               	xorlw	0	; case 0
  2711     0CC7  1903               	skipnz
  2712     0CC8  2CC0               	goto	l264
  2713     0CC9  3A01               	xorlw	1	; case 1
  2714     0CCA  1903               	skipnz
  2715     0CCB  2CC0               	goto	l262
  2716     0CCC  3A03               	xorlw	3	; case 2
  2717     0CCD  1903               	skipnz
  2718     0CCE  2CC0               	goto	l264
  2719     0CCF  3A01               	xorlw	1	; case 3
  2720     0CD0  1903               	skipnz
  2721     0CD1  2CC0               	goto	l264
  2722     0CD2  3A07               	xorlw	7	; case 4
  2723     0CD3  1903               	skipnz
  2724     0CD4  2CC0               	goto	l264
  2725     0CD5  2DAF               	goto	l330
  2726     0CD6                     l270:	
  2727                           ;washing_machine_function_def.c: 252:                 case 0:
  2728                           
  2729     0CD6                     l272:	
  2730                           ;washing_machine_function_def.c: 254:                 case 4:
  2731                           
  2732                           
  2733                           ;washing_machine_function_def.c: 255:                     min = 1;
  2734     0CD6  3001               	movlw	1
  2735     0CD7  00E9               	movwf	_min
  2736                           
  2737                           ;washing_machine_function_def.c: 256:                     sec = 36;
  2738     0CD8  3024               	movlw	36
  2739     0CD9  00EA               	movwf	_sec
  2740                           
  2741                           ;washing_machine_function_def.c: 257:                     break;
  2742     0CDA  2DAF               	goto	l330
  2743     0CDB                     l2808:
  2744     0CDB  087A               	movf	_level,w
  2745                           
  2746                           ; Switch size 1, requested type "simple"
  2747                           ; Number of cases is 5, Range of values is 0 to 4
  2748                           ; switch strategies available:
  2749                           ; Name         Instructions Cycles
  2750                           ; simple_byte           16     9 (average)
  2751                           ; direct_byte           23     8 (fixed)
  2752                           ; jumptable            260     6 (fixed)
  2753                           ;	Chosen strategy is simple_byte
  2754     0CDC  3A00               	xorlw	0	; case 0
  2755     0CDD  1903               	skipnz
  2756     0CDE  2CD6               	goto	l272
  2757     0CDF  3A01               	xorlw	1	; case 1
  2758     0CE0  1903               	skipnz
  2759     0CE1  2CD6               	goto	l270
  2760     0CE2  3A03               	xorlw	3	; case 2
  2761     0CE3  1903               	skipnz
  2762     0CE4  2CD6               	goto	l272
  2763     0CE5  3A01               	xorlw	1	; case 3
  2764     0CE6  1903               	skipnz
  2765     0CE7  2CD6               	goto	l272
  2766     0CE8  3A07               	xorlw	7	; case 4
  2767     0CE9  1903               	skipnz
  2768     0CEA  2CD6               	goto	l272
  2769     0CEB  2DAF               	goto	l330
  2770     0CEC                     l2814:
  2771                           
  2772                           ;washing_machine_function_def.c: 271:                     min = 0;
  2773     0CEC  01E9               	clrf	_min
  2774     0CED                     l2816:
  2775                           
  2776                           ;washing_machine_function_def.c: 272:                     sec = 36;
  2777     0CED  3024               	movlw	36
  2778     0CEE  00EA               	movwf	_sec
  2779                           
  2780                           ;washing_machine_function_def.c: 273:                     break;
  2781     0CEF  2DAF               	goto	l330
  2782     0CF0                     l2820:
  2783     0CF0  087A               	movf	_level,w
  2784                           
  2785                           ; Switch size 1, requested type "simple"
  2786                           ; Number of cases is 5, Range of values is 0 to 4
  2787                           ; switch strategies available:
  2788                           ; Name         Instructions Cycles
  2789                           ; simple_byte           16     9 (average)
  2790                           ; direct_byte           23     8 (fixed)
  2791                           ; jumptable            260     6 (fixed)
  2792                           ;	Chosen strategy is simple_byte
  2793     0CF1  3A00               	xorlw	0	; case 0
  2794     0CF2  1903               	skipnz
  2795     0CF3  2CAB               	goto	l2794
  2796     0CF4  3A01               	xorlw	1	; case 1
  2797     0CF5  1903               	skipnz
  2798     0CF6  2CAB               	goto	l2794
  2799     0CF7  3A03               	xorlw	3	; case 2
  2800     0CF8  1903               	skipnz
  2801     0CF9  2CAB               	goto	l2794
  2802     0CFA  3A01               	xorlw	1	; case 3
  2803     0CFB  1903               	skipnz
  2804     0CFC  2CEC               	goto	l2814
  2805     0CFD  3A07               	xorlw	7	; case 4
  2806     0CFE  1903               	skipnz
  2807     0CFF  2CEC               	goto	l2814
  2808     0D00  2DAF               	goto	l330
  2809     0D01                     l287:	
  2810                           ;washing_machine_function_def.c: 282:                 case 3:
  2811                           
  2812     0D01                     l2822:
  2813                           
  2814                           ;washing_machine_function_def.c: 284:                     min = 0;
  2815     0D01  01E9               	clrf	_min
  2816     0D02                     l2824:
  2817                           
  2818                           ;washing_machine_function_def.c: 285:                     sec = 29;
  2819     0D02  301D               	movlw	29
  2820     0D03  00EA               	movwf	_sec
  2821                           
  2822                           ;washing_machine_function_def.c: 286:                     break;
  2823     0D04  2DAF               	goto	l330
  2824     0D05                     l2828:
  2825     0D05  087A               	movf	_level,w
  2826                           
  2827                           ; Switch size 1, requested type "simple"
  2828                           ; Number of cases is 5, Range of values is 0 to 4
  2829                           ; switch strategies available:
  2830                           ; Name         Instructions Cycles
  2831                           ; simple_byte           16     9 (average)
  2832                           ; direct_byte           23     8 (fixed)
  2833                           ; jumptable            260     6 (fixed)
  2834                           ;	Chosen strategy is simple_byte
  2835     0D06  3A00               	xorlw	0	; case 0
  2836     0D07  1903               	skipnz
  2837     0D08  2D01               	goto	l2822
  2838     0D09  3A01               	xorlw	1	; case 1
  2839     0D0A  1903               	skipnz
  2840     0D0B  2D01               	goto	l287
  2841     0D0C  3A03               	xorlw	3	; case 2
  2842     0D0D  1903               	skipnz
  2843     0D0E  2D01               	goto	l2822
  2844     0D0F  3A01               	xorlw	1	; case 3
  2845     0D10  1903               	skipnz
  2846     0D11  2D01               	goto	l2822
  2847     0D12  3A07               	xorlw	7	; case 4
  2848     0D13  1903               	skipnz
  2849     0D14  2D01               	goto	l2822
  2850     0D15  2DAF               	goto	l330
  2851     0D16                     l2830:
  2852                           
  2853                           ;washing_machine_function_def.c: 293:                     min = 0;
  2854     0D16  01E9               	clrf	_min
  2855     0D17                     l2832:
  2856                           
  2857                           ;washing_machine_function_def.c: 294:                     sec = 46;
  2858     0D17  302E               	movlw	46
  2859     0D18  00EA               	movwf	_sec
  2860     0D19                     l294:	
  2861                           ;washing_machine_function_def.c: 296:                 case 0:
  2862                           
  2863                           
  2864                           ;washing_machine_function_def.c: 297:                     min = 0;
  2865     0D19  01E9               	clrf	_min
  2866     0D1A                     l2834:
  2867                           
  2868                           ;washing_machine_function_def.c: 298:                     sec = 53;
  2869     0D1A  3035               	movlw	53
  2870     0D1B  00EA               	movwf	_sec
  2871     0D1C                     l2836:
  2872                           
  2873                           ;washing_machine_function_def.c: 301:                     min = 1;
  2874     0D1C  3001               	movlw	1
  2875     0D1D  00E9               	movwf	_min
  2876     0D1E  2D02               	goto	l2824
  2877     0D1F                     l2842:
  2878     0D1F  087A               	movf	_level,w
  2879                           
  2880                           ; Switch size 1, requested type "simple"
  2881                           ; Number of cases is 5, Range of values is 0 to 4
  2882                           ; switch strategies available:
  2883                           ; Name         Instructions Cycles
  2884                           ; simple_byte           16     9 (average)
  2885                           ; direct_byte           23     8 (fixed)
  2886                           ; jumptable            260     6 (fixed)
  2887                           ;	Chosen strategy is simple_byte
  2888     0D20  3A00               	xorlw	0	; case 0
  2889     0D21  1903               	skipnz
  2890     0D22  2D19               	goto	l294
  2891     0D23  3A01               	xorlw	1	; case 1
  2892     0D24  1903               	skipnz
  2893     0D25  2D16               	goto	l2830
  2894     0D26  3A03               	xorlw	3	; case 2
  2895     0D27  1903               	skipnz
  2896     0D28  2D19               	goto	l294
  2897     0D29  3A01               	xorlw	1	; case 3
  2898     0D2A  1903               	skipnz
  2899     0D2B  2D1C               	goto	l2836
  2900     0D2C  3A07               	xorlw	7	; case 4
  2901     0D2D  1903               	skipnz
  2902     0D2E  2D1C               	goto	l2836
  2903     0D2F  2DAF               	goto	l330
  2904     0D30                     l2844:
  2905                           
  2906                           ;washing_machine_function_def.c: 311:                     min = 0;
  2907     0D30  01E9               	clrf	_min
  2908     0D31                     l2846:
  2909                           
  2910                           ;washing_machine_function_def.c: 312:                     sec = 10;
  2911     0D31  300A               	movlw	10
  2912     0D32  00EA               	movwf	_sec
  2913     0D33                     l304:	
  2914                           ;washing_machine_function_def.c: 316:                 case 4:
  2915                           
  2916                           
  2917                           ;washing_machine_function_def.c: 317:                     min = 0;
  2918     0D33  01E9               	clrf	_min
  2919     0D34                     l2848:
  2920                           
  2921                           ;washing_machine_function_def.c: 318:                     sec = 20;
  2922     0D34  3014               	movlw	20
  2923     0D35  00EA               	movwf	_sec
  2924                           
  2925                           ;washing_machine_function_def.c: 319:                     break;
  2926     0D36  2DAF               	goto	l330
  2927     0D37                     l2852:
  2928     0D37  087A               	movf	_level,w
  2929                           
  2930                           ; Switch size 1, requested type "simple"
  2931                           ; Number of cases is 5, Range of values is 0 to 4
  2932                           ; switch strategies available:
  2933                           ; Name         Instructions Cycles
  2934                           ; simple_byte           16     9 (average)
  2935                           ; direct_byte           23     8 (fixed)
  2936                           ; jumptable            260     6 (fixed)
  2937                           ;	Chosen strategy is simple_byte
  2938     0D38  3A00               	xorlw	0	; case 0
  2939     0D39  1903               	skipnz
  2940     0D3A  2D33               	goto	l304
  2941     0D3B  3A01               	xorlw	1	; case 1
  2942     0D3C  1903               	skipnz
  2943     0D3D  2D30               	goto	l2844
  2944     0D3E  3A03               	xorlw	3	; case 2
  2945     0D3F  1903               	skipnz
  2946     0D40  2D33               	goto	l304
  2947     0D41  3A01               	xorlw	1	; case 3
  2948     0D42  1903               	skipnz
  2949     0D43  2D33               	goto	l304
  2950     0D44  3A07               	xorlw	7	; case 4
  2951     0D45  1903               	skipnz
  2952     0D46  2D33               	goto	l304
  2953     0D47  2DAF               	goto	l330
  2954     0D48                     l311:	
  2955                           ;washing_machine_function_def.c: 328:                 case 3:
  2956                           
  2957     0D48                     l2854:
  2958                           
  2959                           ;washing_machine_function_def.c: 330:                     min = 0;
  2960     0D48  01E9               	clrf	_min
  2961     0D49                     l2856:
  2962                           
  2963                           ;washing_machine_function_def.c: 331:                     sec = 6;
  2964     0D49  3006               	movlw	6
  2965     0D4A  00EA               	movwf	_sec
  2966                           
  2967                           ;washing_machine_function_def.c: 332:                     break;
  2968     0D4B  2DAF               	goto	l330
  2969     0D4C                     l2860:
  2970     0D4C  087A               	movf	_level,w
  2971                           
  2972                           ; Switch size 1, requested type "simple"
  2973                           ; Number of cases is 5, Range of values is 0 to 4
  2974                           ; switch strategies available:
  2975                           ; Name         Instructions Cycles
  2976                           ; simple_byte           16     9 (average)
  2977                           ; direct_byte           23     8 (fixed)
  2978                           ; jumptable            260     6 (fixed)
  2979                           ;	Chosen strategy is simple_byte
  2980     0D4D  3A00               	xorlw	0	; case 0
  2981     0D4E  1903               	skipnz
  2982     0D4F  2D48               	goto	l2854
  2983     0D50  3A01               	xorlw	1	; case 1
  2984     0D51  1903               	skipnz
  2985     0D52  2D48               	goto	l311
  2986     0D53  3A03               	xorlw	3	; case 2
  2987     0D54  1903               	skipnz
  2988     0D55  2D48               	goto	l2854
  2989     0D56  3A01               	xorlw	1	; case 3
  2990     0D57  1903               	skipnz
  2991     0D58  2D48               	goto	l2854
  2992     0D59  3A07               	xorlw	7	; case 4
  2993     0D5A  1903               	skipnz
  2994     0D5B  2D48               	goto	l2854
  2995     0D5C  2DAF               	goto	l330
  2996     0D5D                     l2862:
  2997                           
  2998                           ;washing_machine_function_def.c: 339:                     min = 0;
  2999     0D5D  01E9               	clrf	_min
  3000     0D5E                     l2864:
  3001                           
  3002                           ;washing_machine_function_def.c: 340:                     sec = 16;
  3003     0D5E  3010               	movlw	16
  3004     0D5F  00EA               	movwf	_sec
  3005     0D60                     l318:	
  3006                           ;washing_machine_function_def.c: 342:                 case 0:
  3007                           
  3008                           
  3009                           ;washing_machine_function_def.c: 343:                     min = 0;
  3010     0D60  01E9               	clrf	_min
  3011     0D61                     l2866:
  3012                           
  3013                           ;washing_machine_function_def.c: 344:                     sec = 21;
  3014     0D61  3015               	movlw	21
  3015     0D62  00EA               	movwf	_sec
  3016     0D63  2CA7               	goto	l2790
  3017     0D64                     l2872:
  3018     0D64  087A               	movf	_level,w
  3019                           
  3020                           ; Switch size 1, requested type "simple"
  3021                           ; Number of cases is 5, Range of values is 0 to 4
  3022                           ; switch strategies available:
  3023                           ; Name         Instructions Cycles
  3024                           ; simple_byte           16     9 (average)
  3025                           ; direct_byte           23     8 (fixed)
  3026                           ; jumptable            260     6 (fixed)
  3027                           ;	Chosen strategy is simple_byte
  3028     0D65  3A00               	xorlw	0	; case 0
  3029     0D66  1903               	skipnz
  3030     0D67  2D60               	goto	l318
  3031     0D68  3A01               	xorlw	1	; case 1
  3032     0D69  1903               	skipnz
  3033     0D6A  2D5D               	goto	l2862
  3034     0D6B  3A03               	xorlw	3	; case 2
  3035     0D6C  1903               	skipnz
  3036     0D6D  2D60               	goto	l318
  3037     0D6E  3A01               	xorlw	1	; case 3
  3038     0D6F  1903               	skipnz
  3039     0D70  2CA7               	goto	l2790
  3040     0D71  3A07               	xorlw	7	; case 4
  3041     0D72  1903               	skipnz
  3042     0D73  2CA7               	goto	l2790
  3043     0D74  2DAF               	goto	l330
  3044     0D75                     l327:	
  3045                           ;washing_machine_function_def.c: 358:                 case 3:
  3046                           
  3047     0D75  2C8E               	goto	l2778
  3048     0D76                     l2880:
  3049     0D76  087A               	movf	_level,w
  3050                           
  3051                           ; Switch size 1, requested type "simple"
  3052                           ; Number of cases is 5, Range of values is 0 to 4
  3053                           ; switch strategies available:
  3054                           ; Name         Instructions Cycles
  3055                           ; simple_byte           16     9 (average)
  3056                           ; direct_byte           23     8 (fixed)
  3057                           ; jumptable            260     6 (fixed)
  3058                           ;	Chosen strategy is simple_byte
  3059     0D77  3A00               	xorlw	0	; case 0
  3060     0D78  1903               	skipnz
  3061     0D79  2C8E               	goto	l2778
  3062     0D7A  3A01               	xorlw	1	; case 1
  3063     0D7B  1903               	skipnz
  3064     0D7C  2D75               	goto	l327
  3065     0D7D  3A03               	xorlw	3	; case 2
  3066     0D7E  1903               	skipnz
  3067     0D7F  2C8E               	goto	l2778
  3068     0D80  3A01               	xorlw	1	; case 3
  3069     0D81  1903               	skipnz
  3070     0D82  2C8E               	goto	l2778
  3071     0D83  3A07               	xorlw	7	; case 4
  3072     0D84  1903               	skipnz
  3073     0D85  2C8E               	goto	l2778
  3074     0D86  2DAF               	goto	l330
  3075     0D87                     l2884:
  3076     0D87  1283               	bcf	3,5	;RP0=0, select bank0
  3077     0D88  1303               	bcf	3,6	;RP1=0, select bank0
  3078     0D89  086B               	movf	_program_no,w
  3079                           
  3080                           ; Switch size 1, requested type "simple"
  3081                           ; Number of cases is 12, Range of values is 0 to 11
  3082                           ; switch strategies available:
  3083                           ; Name         Instructions Cycles
  3084                           ; simple_byte           37    19 (average)
  3085                           ; direct_byte           44     8 (fixed)
  3086                           ; jumptable            260     6 (fixed)
  3087                           ;	Chosen strategy is simple_byte
  3088     0D8A  3A00               	xorlw	0	; case 0
  3089     0D8B  1903               	skipnz
  3090     0D8C  2C79               	goto	l2772
  3091     0D8D  3A01               	xorlw	1	; case 1
  3092     0D8E  1903               	skipnz
  3093     0D8F  2C96               	goto	l2788
  3094     0D90  3A03               	xorlw	3	; case 2
  3095     0D91  1903               	skipnz
  3096     0D92  2CAF               	goto	l2800
  3097     0D93  3A01               	xorlw	1	; case 3
  3098     0D94  1903               	skipnz
  3099     0D95  2CC5               	goto	l2804
  3100     0D96  3A07               	xorlw	7	; case 4
  3101     0D97  1903               	skipnz
  3102     0D98  2CDB               	goto	l2808
  3103     0D99  3A01               	xorlw	1	; case 5
  3104     0D9A  1903               	skipnz
  3105     0D9B  2CF0               	goto	l2820
  3106     0D9C  3A03               	xorlw	3	; case 6
  3107     0D9D  1903               	skipnz
  3108     0D9E  2D05               	goto	l2828
  3109     0D9F  3A01               	xorlw	1	; case 7
  3110     0DA0  1903               	skipnz
  3111     0DA1  2D1F               	goto	l2842
  3112     0DA2  3A0F               	xorlw	15	; case 8
  3113     0DA3  1903               	skipnz
  3114     0DA4  2D37               	goto	l2852
  3115     0DA5  3A01               	xorlw	1	; case 9
  3116     0DA6  1903               	skipnz
  3117     0DA7  2D4C               	goto	l2860
  3118     0DA8  3A03               	xorlw	3	; case 10
  3119     0DA9  1903               	skipnz
  3120     0DAA  2D64               	goto	l2872
  3121     0DAB  3A01               	xorlw	1	; case 11
  3122     0DAC  1903               	skipnz
  3123     0DAD  2D76               	goto	l2880
  3124     0DAE  2DAF               	goto	l330
  3125     0DAF                     l330:
  3126     0DAF  0008               	return
  3127     0DB0                     __end_of_set_time:
  3128                           
  3129                           	psect	text4
  3130     0046                     __ptext4:	
  3131 ;; *************** function _run_program *****************
  3132 ;; Defined at:
  3133 ;;		line 84 in file "washing_machine_function_def.c"
  3134 ;; Parameters:    Size  Location     Type
  3135 ;;  key             1    wreg     unsigned char 
  3136 ;; Auto vars:     Size  Location     Type
  3137 ;;  key             1   64[BANK0 ] unsigned char 
  3138 ;; Return value:  Size  Location     Type
  3139 ;;                  1    wreg      void 
  3140 ;; Registers used:
  3141 ;;		wreg, fsr0l, fsr0h, status,2, status,0, btemp+1, pclath, cstack
  3142 ;; Tracked objects:
  3143 ;;		On entry : 0/0
  3144 ;;		On exit  : 0/0
  3145 ;;		Unchanged: 0/0
  3146 ;; Data sizes:     COMMON   BANK0   BANK1   BANK3   BANK2
  3147 ;;      Params:         0       0       0       0       0
  3148 ;;      Locals:         0       1       0       0       0
  3149 ;;      Temps:          0      12       0       0       0
  3150 ;;      Totals:         0      13       0       0       0
  3151 ;;Total ram usage:       13 bytes
  3152 ;; Hardware stack levels used: 1
  3153 ;; Hardware stack levels required when called: 4
  3154 ;; This function calls:
  3155 ;;		___awdiv
  3156 ;;		___awmod
  3157 ;;		___bmul
  3158 ;;		___flge
  3159 ;;		___flmul
  3160 ;;		___flsub
  3161 ;;		___fltol
  3162 ;;		___xxtofl
  3163 ;;		_clcd_print
  3164 ;;		_clcd_putch
  3165 ;;		_clear_screen
  3166 ;;		_door_status_check
  3167 ;; This function is called by:
  3168 ;;		_main
  3169 ;; This function uses a non-reentrant model
  3170 ;;
  3171                           
  3172     0046                     _run_program:	
  3173                           ;psect for function _run_program
  3174                           
  3175                           
  3176                           ;incstack = 0
  3177                           ; Regs used in _run_program: [wreg-fsr0h+status,2+status,0+btemp+1+pclath+cstack]
  3178                           ;run_program@key stored from wreg
  3179     0046  1283               	bcf	3,5	;RP0=0, select bank0
  3180     0047  1303               	bcf	3,6	;RP1=0, select bank0
  3181     0048  00E0               	movwf	run_program@key
  3182     0049                     l3510:
  3183                           
  3184                           ;washing_machine_function_def.c: 84: void run_program(unsigned char key);washing_machine
      +                          _function_def.c: 85: {;washing_machine_function_def.c: 86:     door_status_check();
  3185     0049  160A  118A  26D7  120A  118A  	fcall	_door_status_check
  3186     004E                     l3512:
  3187                           
  3188                           ;washing_machine_function_def.c: 87:     if(reset_flag == 0x33)
  3189     004E  3033               	movlw	51
  3190     004F  1283               	bcf	3,5	;RP0=0, select bank0
  3191     0050  1303               	bcf	3,6	;RP1=0, select bank0
  3192     0051  066D               	xorwf	_reset_flag,w
  3193     0052  1D03               	btfss	3,2
  3194     0053  2855               	goto	u4501
  3195     0054  2856               	goto	u4500
  3196     0055                     u4501:
  3197     0055  2A06               	goto	l3556
  3198     0056                     u4500:
  3199     0056                     l3514:
  3200                           
  3201                           ;washing_machine_function_def.c: 88:     {;washing_machine_function_def.c: 89:         c
      +                          lear_screen();
  3202     0056  160A  118A  24E7  120A  118A  	fcall	_clear_screen
  3203     005B                     l3516:
  3204                           
  3205                           ;washing_machine_function_def.c: 90:     clcd_print("Prog:",(0x80 + 0));
  3206     005B  3039               	movlw	low (STR_29| (0+32768))
  3207     005C  1283               	bcf	3,5	;RP0=0, select bank0
  3208     005D  1303               	bcf	3,6	;RP1=0, select bank0
  3209     005E  00A0               	movwf	clcd_print@str
  3210     005F  3091               	movlw	high (STR_29| (0+32768))
  3211     0060  00A1               	movwf	clcd_print@str+1
  3212     0061  3080               	movlw	128
  3213     0062  00A2               	movwf	clcd_print@addr
  3214     0063  120A  158A  2012  120A  118A  	fcall	_clcd_print
  3215     0068                     l3518:
  3216                           
  3217                           ;washing_machine_function_def.c: 91:     clcd_print(washing_program[program_no], (0x80 +
      +                           6));
  3218     0068  1283               	bcf	3,5	;RP0=0, select bank0
  3219     0069  1303               	bcf	3,6	;RP1=0, select bank0
  3220     006A  086B               	movf	_program_no,w
  3221     006B  00D4               	movwf	??_run_program
  3222     006C  0754               	addwf	??_run_program,w
  3223     006D  3EA0               	addlw	(low (_washing_program| 0))& (0+255)
  3224     006E  0084               	movwf	4
  3225     006F  1383               	bcf	3,7	;select IRP bank1
  3226     0070  0800               	movf	0,w
  3227     0071  00A0               	movwf	clcd_print@str
  3228     0072  0A84               	incf	4,f
  3229     0073  0800               	movf	0,w
  3230     0074  0384               	decf	4,f
  3231     0075  00A1               	movwf	clcd_print@str+1
  3232     0076  3086               	movlw	134
  3233     0077  00A2               	movwf	clcd_print@addr
  3234     0078  120A  158A  2012  120A  118A  	fcall	_clcd_print
  3235     007D                     l3520:
  3236                           
  3237                           ;washing_machine_function_def.c: 92:     clcd_print("Time:",(0xC0 + 0));
  3238     007D  3033               	movlw	low (STR_30| (0+32768))
  3239     007E  1283               	bcf	3,5	;RP0=0, select bank0
  3240     007F  1303               	bcf	3,6	;RP1=0, select bank0
  3241     0080  00A0               	movwf	clcd_print@str
  3242     0081  3091               	movlw	high (STR_30| (0+32768))
  3243     0082  00A1               	movwf	clcd_print@str+1
  3244     0083  30C0               	movlw	192
  3245     0084  00A2               	movwf	clcd_print@addr
  3246     0085  120A  158A  2012  120A  118A  	fcall	_clcd_print
  3247     008A                     l3522:
  3248                           
  3249                           ;washing_machine_function_def.c: 94:     clcd_putch(min/10 + '0',(0xC0 + 6));
  3250     008A  30C6               	movlw	198
  3251     008B  1283               	bcf	3,5	;RP0=0, select bank0
  3252     008C  1303               	bcf	3,6	;RP1=0, select bank0
  3253     008D  00A0               	movwf	clcd_putch@addr
  3254     008E  300A               	movlw	10
  3255     008F  00F2               	movwf	___awdiv@divisor
  3256     0090  3000               	movlw	0
  3257     0091  00F3               	movwf	___awdiv@divisor+1
  3258     0092  0869               	movf	_min,w
  3259     0093  00D4               	movwf	??_run_program
  3260     0094  01D5               	clrf	??_run_program+1
  3261     0095  0854               	movf	??_run_program,w
  3262     0096  00F4               	movwf	___awdiv@dividend
  3263     0097  0855               	movf	??_run_program+1,w
  3264     0098  00F5               	movwf	___awdiv@dividend+1
  3265     0099  160A  118A  2735  120A  118A  	fcall	___awdiv
  3266     009E  0872               	movf	?___awdiv,w
  3267     009F  3E30               	addlw	48
  3268     00A0  160A  118A  251E  120A  118A  	fcall	_clcd_putch
  3269     00A5                     l3524:
  3270                           
  3271                           ;washing_machine_function_def.c: 95:     clcd_putch(min%10 + '0',(0xC0 + 7));
  3272     00A5  30C7               	movlw	199
  3273     00A6  1283               	bcf	3,5	;RP0=0, select bank0
  3274     00A7  1303               	bcf	3,6	;RP1=0, select bank0
  3275     00A8  00A0               	movwf	clcd_putch@addr
  3276     00A9  300A               	movlw	10
  3277     00AA  00F2               	movwf	___awmod@divisor
  3278     00AB  3000               	movlw	0
  3279     00AC  00F3               	movwf	___awmod@divisor+1
  3280     00AD  0869               	movf	_min,w
  3281     00AE  00D4               	movwf	??_run_program
  3282     00AF  01D5               	clrf	??_run_program+1
  3283     00B0  0854               	movf	??_run_program,w
  3284     00B1  00F4               	movwf	___awmod@dividend
  3285     00B2  0855               	movf	??_run_program+1,w
  3286     00B3  00F5               	movwf	___awmod@dividend+1
  3287     00B4  160A  118A  2680  120A  118A  	fcall	___awmod
  3288     00B9  0872               	movf	?___awmod,w
  3289     00BA  3E30               	addlw	48
  3290     00BB  160A  118A  251E  120A  118A  	fcall	_clcd_putch
  3291     00C0                     l3526:
  3292                           
  3293                           ;washing_machine_function_def.c: 96:     clcd_putch(':',(0xC0 + 8));
  3294     00C0  30C8               	movlw	200
  3295     00C1  1283               	bcf	3,5	;RP0=0, select bank0
  3296     00C2  1303               	bcf	3,6	;RP1=0, select bank0
  3297     00C3  00A0               	movwf	clcd_putch@addr
  3298     00C4  303A               	movlw	58
  3299     00C5  160A  118A  251E  120A  118A  	fcall	_clcd_putch
  3300     00CA                     l3528:
  3301                           
  3302                           ;washing_machine_function_def.c: 97:     clcd_putch(sec/10 + '0',(0xC0 + 9));
  3303     00CA  30C9               	movlw	201
  3304     00CB  1283               	bcf	3,5	;RP0=0, select bank0
  3305     00CC  1303               	bcf	3,6	;RP1=0, select bank0
  3306     00CD  00A0               	movwf	clcd_putch@addr
  3307     00CE  300A               	movlw	10
  3308     00CF  00F2               	movwf	___awdiv@divisor
  3309     00D0  3000               	movlw	0
  3310     00D1  00F3               	movwf	___awdiv@divisor+1
  3311     00D2  086A               	movf	_sec,w
  3312     00D3  00D4               	movwf	??_run_program
  3313     00D4  01D5               	clrf	??_run_program+1
  3314     00D5  0854               	movf	??_run_program,w
  3315     00D6  00F4               	movwf	___awdiv@dividend
  3316     00D7  0855               	movf	??_run_program+1,w
  3317     00D8  00F5               	movwf	___awdiv@dividend+1
  3318     00D9  160A  118A  2735  120A  118A  	fcall	___awdiv
  3319     00DE  0872               	movf	?___awdiv,w
  3320     00DF  3E30               	addlw	48
  3321     00E0  160A  118A  251E  120A  118A  	fcall	_clcd_putch
  3322     00E5                     l3530:
  3323                           
  3324                           ;washing_machine_function_def.c: 98:     clcd_putch(sec%10 + '0',(0xC0 + 10));
  3325     00E5  30CA               	movlw	202
  3326     00E6  1283               	bcf	3,5	;RP0=0, select bank0
  3327     00E7  1303               	bcf	3,6	;RP1=0, select bank0
  3328     00E8  00A0               	movwf	clcd_putch@addr
  3329     00E9  300A               	movlw	10
  3330     00EA  00F2               	movwf	___awmod@divisor
  3331     00EB  3000               	movlw	0
  3332     00EC  00F3               	movwf	___awmod@divisor+1
  3333     00ED  086A               	movf	_sec,w
  3334     00EE  00D4               	movwf	??_run_program
  3335     00EF  01D5               	clrf	??_run_program+1
  3336     00F0  0854               	movf	??_run_program,w
  3337     00F1  00F4               	movwf	___awmod@dividend
  3338     00F2  0855               	movf	??_run_program+1,w
  3339     00F3  00F5               	movwf	___awmod@dividend+1
  3340     00F4  160A  118A  2680  120A  118A  	fcall	___awmod
  3341     00F9  0872               	movf	?___awmod,w
  3342     00FA  3E30               	addlw	48
  3343     00FB  160A  118A  251E  120A  118A  	fcall	_clcd_putch
  3344     0100                     l3532:
  3345                           
  3346                           ;washing_machine_function_def.c: 99:     reset_flag = 0xFF;
  3347     0100  30FF               	movlw	255
  3348     0101  1283               	bcf	3,5	;RP0=0, select bank0
  3349     0102  1303               	bcf	3,6	;RP1=0, select bank0
  3350     0103  00ED               	movwf	_reset_flag
  3351     0104                     l3534:
  3352                           
  3353                           ;washing_machine_function_def.c: 101:     _delay((unsigned long)((2000)*(20000000/4000.0
      +                          )));
  3354     0104  3033               	movlw	51
  3355     0105  1283               	bcf	3,5	;RP0=0, select bank0
  3356     0106  1303               	bcf	3,6	;RP1=0, select bank0
  3357     0107  00D6               	movwf	??_run_program+2
  3358     0108  30BB               	movlw	187
  3359     0109  00D5               	movwf	??_run_program+1
  3360     010A  30DF               	movlw	223
  3361     010B  00D4               	movwf	??_run_program
  3362     010C                     u4707:
  3363     010C  0BD4               	decfsz	??_run_program,f
  3364     010D  290C               	goto	u4707
  3365     010E  0BD5               	decfsz	??_run_program+1,f
  3366     010F  290C               	goto	u4707
  3367     0110  0BD6               	decfsz	??_run_program+2,f
  3368     0111  290C               	goto	u4707
  3369     0112                     l3536:
  3370                           
  3371                           ;washing_machine_function_def.c: 103:     clear_screen();
  3372     0112  160A  118A  24E7  120A  118A  	fcall	_clear_screen
  3373     0117                     l3538:
  3374                           
  3375                           ;washing_machine_function_def.c: 104:     clcd_print("Function:",(0x80 + 0));
  3376     0117  30E3               	movlw	low (STR_31| (0+32768))
  3377     0118  1283               	bcf	3,5	;RP0=0, select bank0
  3378     0119  1303               	bcf	3,6	;RP1=0, select bank0
  3379     011A  00A0               	movwf	clcd_print@str
  3380     011B  3090               	movlw	high (STR_31| (0+32768))
  3381     011C  00A1               	movwf	clcd_print@str+1
  3382     011D  3080               	movlw	128
  3383     011E  00A2               	movwf	clcd_print@addr
  3384     011F  120A  158A  2012  120A  118A  	fcall	_clcd_print
  3385     0124                     l3540:
  3386                           
  3387                           ;washing_machine_function_def.c: 105:     clcd_print("Time:",(0xC0 + 0));
  3388     0124  3033               	movlw	low (STR_30| (0+32768))
  3389     0125  1283               	bcf	3,5	;RP0=0, select bank0
  3390     0126  1303               	bcf	3,6	;RP1=0, select bank0
  3391     0127  00A0               	movwf	clcd_print@str
  3392     0128  3091               	movlw	high (STR_30| (0+32768))
  3393     0129  00A1               	movwf	clcd_print@str+1
  3394     012A  30C0               	movlw	192
  3395     012B  00A2               	movwf	clcd_print@addr
  3396     012C  120A  158A  2012  120A  118A  	fcall	_clcd_print
  3397     0131                     l3542:
  3398                           
  3399                           ;washing_machine_function_def.c: 106:     clcd_print("5:START 6:PAUSE",(0x90 + 0));
  3400     0131  3012               	movlw	low (STR_33| (0+32768))
  3401     0132  1283               	bcf	3,5	;RP0=0, select bank0
  3402     0133  1303               	bcf	3,6	;RP1=0, select bank0
  3403     0134  00A0               	movwf	clcd_print@str
  3404     0135  3090               	movlw	high (STR_33| (0+32768))
  3405     0136  00A1               	movwf	clcd_print@str+1
  3406     0137  3090               	movlw	144
  3407     0138  00A2               	movwf	clcd_print@addr
  3408     0139  120A  158A  2012  120A  118A  	fcall	_clcd_print
  3409     013E                     l3544:
  3410                           
  3411                           ;washing_machine_function_def.c: 108:     total_time = time = min * 60 + sec;
  3412     013E  303C               	movlw	60
  3413     013F  00F2               	movwf	___bmul@multiplicand
  3414     0140  1283               	bcf	3,5	;RP0=0, select bank0
  3415     0141  1303               	bcf	3,6	;RP1=0, select bank0
  3416     0142  0869               	movf	_min,w
  3417     0143  160A  118A  24F8  120A  118A  	fcall	___bmul
  3418     0148  1283               	bcf	3,5	;RP0=0, select bank0
  3419     0149  1303               	bcf	3,6	;RP1=0, select bank0
  3420     014A  076A               	addwf	_sec,w
  3421     014B  00E4               	movwf	_time
  3422     014C  00E8               	movwf	_total_time
  3423     014D                     l3546:
  3424                           
  3425                           ;washing_machine_function_def.c: 109:     wash_time = (int)total_time* 0.46;
  3426     014D  0868               	movf	_total_time,w
  3427     014E  00D4               	movwf	??_run_program
  3428     014F  01D5               	clrf	??_run_program+1
  3429     0150  01D6               	clrf	??_run_program+2
  3430     0151  01D7               	clrf	??_run_program+3
  3431     0152  0857               	movf	??_run_program+3,w
  3432     0153  00F5               	movwf	___xxtofl@val+3
  3433     0154  0856               	movf	??_run_program+2,w
  3434     0155  00F4               	movwf	___xxtofl@val+2
  3435     0156  0855               	movf	??_run_program+1,w
  3436     0157  00F3               	movwf	___xxtofl@val+1
  3437     0158  0854               	movf	??_run_program,w
  3438     0159  00F2               	movwf	___xxtofl@val
  3439     015A  3001               	movlw	1
  3440     015B  120A  118A  2746  120A  118A  	fcall	___xxtofl
  3441     0160  0875               	movf	?___xxtofl+3,w
  3442     0161  1283               	bcf	3,5	;RP0=0, select bank0
  3443     0162  1303               	bcf	3,6	;RP1=0, select bank0
  3444     0163  00AD               	movwf	___flmul@a+3
  3445     0164  0874               	movf	?___xxtofl+2,w
  3446     0165  00AC               	movwf	___flmul@a+2
  3447     0166  0873               	movf	?___xxtofl+1,w
  3448     0167  00AB               	movwf	___flmul@a+1
  3449     0168  0872               	movf	?___xxtofl,w
  3450     0169  00AA               	movwf	___flmul@a
  3451     016A  303E               	movlw	62
  3452     016B  00A9               	movwf	___flmul@b+3
  3453     016C  30EB               	movlw	235
  3454     016D  00A8               	movwf	___flmul@b+2
  3455     016E  3085               	movlw	133
  3456     016F  00A7               	movwf	___flmul@b+1
  3457     0170  301F               	movlw	31
  3458     0171  00A6               	movwf	___flmul@b
  3459     0172  120A  118A  2404  120A  118A  	fcall	___flmul
  3460     0177  1283               	bcf	3,5	;RP0=0, select bank0
  3461     0178  1303               	bcf	3,6	;RP1=0, select bank0
  3462     0179  0829               	movf	?___flmul+3,w
  3463     017A  00C3               	movwf	___fltol@f1+3
  3464     017B  0828               	movf	?___flmul+2,w
  3465     017C  00C2               	movwf	___fltol@f1+2
  3466     017D  0827               	movf	?___flmul+1,w
  3467     017E  00C1               	movwf	___fltol@f1+1
  3468     017F  0826               	movf	?___flmul,w
  3469     0180  00C0               	movwf	___fltol@f1
  3470     0181  120A  158A  20B3  120A  118A  	fcall	___fltol
  3471     0186  1283               	bcf	3,5	;RP0=0, select bank0
  3472     0187  1303               	bcf	3,6	;RP1=0, select bank0
  3473     0188  0840               	movf	?___fltol,w
  3474     0189  00E7               	movwf	_wash_time
  3475     018A                     l3548:
  3476                           
  3477                           ;washing_machine_function_def.c: 110:     rinse_time = (int)total_time* 0.12;
  3478     018A  0868               	movf	_total_time,w
  3479     018B  00D4               	movwf	??_run_program
  3480     018C  01D5               	clrf	??_run_program+1
  3481     018D  01D6               	clrf	??_run_program+2
  3482     018E  01D7               	clrf	??_run_program+3
  3483     018F  0857               	movf	??_run_program+3,w
  3484     0190  00F5               	movwf	___xxtofl@val+3
  3485     0191  0856               	movf	??_run_program+2,w
  3486     0192  00F4               	movwf	___xxtofl@val+2
  3487     0193  0855               	movf	??_run_program+1,w
  3488     0194  00F3               	movwf	___xxtofl@val+1
  3489     0195  0854               	movf	??_run_program,w
  3490     0196  00F2               	movwf	___xxtofl@val
  3491     0197  3001               	movlw	1
  3492     0198  120A  118A  2746  120A  118A  	fcall	___xxtofl
  3493     019D  0875               	movf	?___xxtofl+3,w
  3494     019E  1283               	bcf	3,5	;RP0=0, select bank0
  3495     019F  1303               	bcf	3,6	;RP1=0, select bank0
  3496     01A0  00AD               	movwf	___flmul@a+3
  3497     01A1  0874               	movf	?___xxtofl+2,w
  3498     01A2  00AC               	movwf	___flmul@a+2
  3499     01A3  0873               	movf	?___xxtofl+1,w
  3500     01A4  00AB               	movwf	___flmul@a+1
  3501     01A5  0872               	movf	?___xxtofl,w
  3502     01A6  00AA               	movwf	___flmul@a
  3503     01A7  303D               	movlw	61
  3504     01A8  00A9               	movwf	___flmul@b+3
  3505     01A9  30F5               	movlw	245
  3506     01AA  00A8               	movwf	___flmul@b+2
  3507     01AB  30C2               	movlw	194
  3508     01AC  00A7               	movwf	___flmul@b+1
  3509     01AD  308F               	movlw	143
  3510     01AE  00A6               	movwf	___flmul@b
  3511     01AF  120A  118A  2404  120A  118A  	fcall	___flmul
  3512     01B4  1283               	bcf	3,5	;RP0=0, select bank0
  3513     01B5  1303               	bcf	3,6	;RP1=0, select bank0
  3514     01B6  0829               	movf	?___flmul+3,w
  3515     01B7  00C3               	movwf	___fltol@f1+3
  3516     01B8  0828               	movf	?___flmul+2,w
  3517     01B9  00C2               	movwf	___fltol@f1+2
  3518     01BA  0827               	movf	?___flmul+1,w
  3519     01BB  00C1               	movwf	___fltol@f1+1
  3520     01BC  0826               	movf	?___flmul,w
  3521     01BD  00C0               	movwf	___fltol@f1
  3522     01BE  120A  158A  20B3  120A  118A  	fcall	___fltol
  3523     01C3  1283               	bcf	3,5	;RP0=0, select bank0
  3524     01C4  1303               	bcf	3,6	;RP1=0, select bank0
  3525     01C5  0840               	movf	?___fltol,w
  3526     01C6  00E6               	movwf	_rinse_time
  3527     01C7                     l3550:
  3528                           
  3529                           ;washing_machine_function_def.c: 111:     spin_time = (int)total_time* 0.42;
  3530     01C7  0868               	movf	_total_time,w
  3531     01C8  00D4               	movwf	??_run_program
  3532     01C9  01D5               	clrf	??_run_program+1
  3533     01CA  01D6               	clrf	??_run_program+2
  3534     01CB  01D7               	clrf	??_run_program+3
  3535     01CC  0857               	movf	??_run_program+3,w
  3536     01CD  00F5               	movwf	___xxtofl@val+3
  3537     01CE  0856               	movf	??_run_program+2,w
  3538     01CF  00F4               	movwf	___xxtofl@val+2
  3539     01D0  0855               	movf	??_run_program+1,w
  3540     01D1  00F3               	movwf	___xxtofl@val+1
  3541     01D2  0854               	movf	??_run_program,w
  3542     01D3  00F2               	movwf	___xxtofl@val
  3543     01D4  3001               	movlw	1
  3544     01D5  120A  118A  2746  120A  118A  	fcall	___xxtofl
  3545     01DA  0875               	movf	?___xxtofl+3,w
  3546     01DB  1283               	bcf	3,5	;RP0=0, select bank0
  3547     01DC  1303               	bcf	3,6	;RP1=0, select bank0
  3548     01DD  00AD               	movwf	___flmul@a+3
  3549     01DE  0874               	movf	?___xxtofl+2,w
  3550     01DF  00AC               	movwf	___flmul@a+2
  3551     01E0  0873               	movf	?___xxtofl+1,w
  3552     01E1  00AB               	movwf	___flmul@a+1
  3553     01E2  0872               	movf	?___xxtofl,w
  3554     01E3  00AA               	movwf	___flmul@a
  3555     01E4  303E               	movlw	62
  3556     01E5  00A9               	movwf	___flmul@b+3
  3557     01E6  30D7               	movlw	215
  3558     01E7  00A8               	movwf	___flmul@b+2
  3559     01E8  300A               	movlw	10
  3560     01E9  00A7               	movwf	___flmul@b+1
  3561     01EA  303D               	movlw	61
  3562     01EB  00A6               	movwf	___flmul@b
  3563     01EC  120A  118A  2404  120A  118A  	fcall	___flmul
  3564     01F1  1283               	bcf	3,5	;RP0=0, select bank0
  3565     01F2  1303               	bcf	3,6	;RP1=0, select bank0
  3566     01F3  0829               	movf	?___flmul+3,w
  3567     01F4  00C3               	movwf	___fltol@f1+3
  3568     01F5  0828               	movf	?___flmul+2,w
  3569     01F6  00C2               	movwf	___fltol@f1+2
  3570     01F7  0827               	movf	?___flmul+1,w
  3571     01F8  00C1               	movwf	___fltol@f1+1
  3572     01F9  0826               	movf	?___flmul,w
  3573     01FA  00C0               	movwf	___fltol@f1
  3574     01FB  120A  158A  20B3  120A  118A  	fcall	___fltol
  3575     0200  1283               	bcf	3,5	;RP0=0, select bank0
  3576     0201  1303               	bcf	3,6	;RP1=0, select bank0
  3577     0202  0840               	movf	?___fltol,w
  3578     0203  00E5               	movwf	_spin_time
  3579     0204                     l3552:
  3580                           
  3581                           ;washing_machine_function_def.c: 112:     TMR2ON = 1;
  3582     0204  1512               	bsf	18,2	;volatile
  3583     0205                     l3554:
  3584                           
  3585                           ;washing_machine_function_def.c: 113:     RC2 = 1;
  3586     0205  1507               	bsf	7,2	;volatile
  3587     0206                     l3556:
  3588                           
  3589                           ;washing_machine_function_def.c: 116:     if(key == 0x1F)
  3590     0206  301F               	movlw	31
  3591     0207  0660               	xorwf	run_program@key,w
  3592     0208  1D03               	btfss	3,2
  3593     0209  2A0B               	goto	u4511
  3594     020A  2A0C               	goto	u4510
  3595     020B                     u4511:
  3596     020B  2A10               	goto	l3560
  3597     020C                     u4510:
  3598     020C                     l3558:
  3599                           
  3600                           ;washing_machine_function_def.c: 117:     {;washing_machine_function_def.c: 118:        
      +                           TMR2ON = 0;
  3601     020C  1112               	bcf	18,2	;volatile
  3602                           
  3603                           ;washing_machine_function_def.c: 119:         RC2 = 0;
  3604     020D  1107               	bcf	7,2	;volatile
  3605                           
  3606                           ;washing_machine_function_def.c: 120:         operational_mode = 0x44;
  3607     020E  3044               	movlw	68
  3608     020F  00EE               	movwf	_operational_mode
  3609     0210                     l3560:
  3610                           
  3611                           ;washing_machine_function_def.c: 122:     total_time = min * 60 + sec;
  3612     0210  303C               	movlw	60
  3613     0211  00F2               	movwf	___bmul@multiplicand
  3614     0212  0869               	movf	_min,w
  3615     0213  160A  118A  24F8  120A  118A  	fcall	___bmul
  3616     0218  1283               	bcf	3,5	;RP0=0, select bank0
  3617     0219  1303               	bcf	3,6	;RP1=0, select bank0
  3618     021A  076A               	addwf	_sec,w
  3619     021B  00E8               	movwf	_total_time
  3620     021C                     l3562:
  3621                           
  3622                           ;washing_machine_function_def.c: 123:     if(program_no <= 7)
  3623     021C  3008               	movlw	8
  3624     021D  026B               	subwf	_program_no,w
  3625     021E  1803               	skipnc
  3626     021F  2A21               	goto	u4521
  3627     0220  2A22               	goto	u4520
  3628     0221                     u4521:
  3629     0221  2A7F               	goto	l3574
  3630     0222                     u4520:
  3631     0222                     l3564:
  3632                           
  3633                           ;washing_machine_function_def.c: 124:     {;washing_machine_function_def.c: 125:        
      +                           if(total_time >= (time - wash_time))
  3634     0222  0864               	movf	_time,w
  3635     0223  00D4               	movwf	??_run_program
  3636     0224  01D5               	clrf	??_run_program+1
  3637     0225  0855               	movf	??_run_program+1,w
  3638     0226  00D7               	movwf	??_run_program+3
  3639     0227  0867               	movf	_wash_time,w
  3640     0228  0254               	subwf	??_run_program,w
  3641     0229  00D6               	movwf	??_run_program+2
  3642     022A  1C03               	skipc
  3643     022B  03D7               	decf	??_run_program+3,f
  3644     022C  0857               	movf	??_run_program+3,w
  3645     022D  3A80               	xorlw	128
  3646     022E  3C80               	sublw	128
  3647     022F  1D03               	skipz
  3648     0230  2A33               	goto	u4535
  3649     0231  0856               	movf	??_run_program+2,w
  3650     0232  0268               	subwf	_total_time,w
  3651     0233                     u4535:
  3652     0233  1C03               	skipc
  3653     0234  2A36               	goto	u4531
  3654     0235  2A37               	goto	u4530
  3655     0236                     u4531:
  3656     0236  2A45               	goto	l3568
  3657     0237                     u4530:
  3658     0237                     l3566:
  3659                           
  3660                           ;washing_machine_function_def.c: 126:         {;washing_machine_function_def.c: 127:    
      +                                   clcd_print("Wash",(0x80 + 10));
  3661     0237  3056               	movlw	low (STR_34| (0+32768))
  3662     0238  1283               	bcf	3,5	;RP0=0, select bank0
  3663     0239  1303               	bcf	3,6	;RP1=0, select bank0
  3664     023A  00A0               	movwf	clcd_print@str
  3665     023B  3091               	movlw	high (STR_34| (0+32768))
  3666     023C  00A1               	movwf	clcd_print@str+1
  3667     023D  308A               	movlw	138
  3668     023E  00A2               	movwf	clcd_print@addr
  3669     023F  120A  158A  2012  120A  118A  	fcall	_clcd_print
  3670                           
  3671                           ;washing_machine_function_def.c: 128:         }
  3672     0244  2B44               	goto	l3588
  3673     0245                     l3568:
  3674     0245  1283               	bcf	3,5	;RP0=0, select bank0
  3675     0246  1303               	bcf	3,6	;RP1=0, select bank0
  3676     0247  0864               	movf	_time,w
  3677     0248  00D4               	movwf	??_run_program
  3678     0249  01D5               	clrf	??_run_program+1
  3679     024A  0855               	movf	??_run_program+1,w
  3680     024B  00D7               	movwf	??_run_program+3
  3681     024C  0867               	movf	_wash_time,w
  3682     024D  0254               	subwf	??_run_program,w
  3683     024E  00D6               	movwf	??_run_program+2
  3684     024F  1C03               	skipc
  3685     0250  03D7               	decf	??_run_program+3,f
  3686     0251  0857               	movf	??_run_program+3,w
  3687     0252  00D9               	movwf	??_run_program+5
  3688     0253  0865               	movf	_spin_time,w
  3689     0254  0256               	subwf	??_run_program+2,w
  3690     0255  00D8               	movwf	??_run_program+4
  3691     0256  1C03               	skipc
  3692     0257  03D9               	decf	??_run_program+5,f
  3693     0258  0859               	movf	??_run_program+5,w
  3694     0259  3A80               	xorlw	128
  3695     025A  3C80               	sublw	128
  3696     025B  1D03               	skipz
  3697     025C  2A5F               	goto	u4545
  3698     025D  0858               	movf	??_run_program+4,w
  3699     025E  0268               	subwf	_total_time,w
  3700     025F                     u4545:
  3701     025F  1C03               	skipc
  3702     0260  2A62               	goto	u4541
  3703     0261  2A63               	goto	u4540
  3704     0262                     u4541:
  3705     0262  2A71               	goto	l3572
  3706     0263                     u4540:
  3707     0263                     l3570:
  3708                           
  3709                           ;washing_machine_function_def.c: 130:         {;washing_machine_function_def.c: 131:    
      +                                 clcd_print("Rinse",(0x80 + 10));
  3710     0263  303F               	movlw	low (STR_35| (0+32768))
  3711     0264  1283               	bcf	3,5	;RP0=0, select bank0
  3712     0265  1303               	bcf	3,6	;RP1=0, select bank0
  3713     0266  00A0               	movwf	clcd_print@str
  3714     0267  3091               	movlw	high (STR_35| (0+32768))
  3715     0268  00A1               	movwf	clcd_print@str+1
  3716     0269  308A               	movlw	138
  3717     026A  00A2               	movwf	clcd_print@addr
  3718     026B  120A  158A  2012  120A  118A  	fcall	_clcd_print
  3719                           
  3720                           ;washing_machine_function_def.c: 132:         }
  3721     0270  2B44               	goto	l3588
  3722     0271                     l3572:
  3723                           
  3724                           ;washing_machine_function_def.c: 134:         {;washing_machine_function_def.c: 135:    
      +                                   clcd_print("Spin",(0x80 + 10));
  3725     0271  305B               	movlw	low (STR_36| (0+32768))
  3726     0272  1283               	bcf	3,5	;RP0=0, select bank0
  3727     0273  1303               	bcf	3,6	;RP1=0, select bank0
  3728     0274  00A0               	movwf	clcd_print@str
  3729     0275  3091               	movlw	high (STR_36| (0+32768))
  3730     0276  00A1               	movwf	clcd_print@str+1
  3731     0277  308A               	movlw	138
  3732     0278  00A2               	movwf	clcd_print@addr
  3733     0279  120A  158A  2012  120A  118A  	fcall	_clcd_print
  3734     027E  2B44               	goto	l3588
  3735     027F                     l3574:
  3736     027F  3008               	movlw	8
  3737     0280  066B               	xorwf	_program_no,w
  3738     0281  1D03               	btfss	3,2
  3739     0282  2A84               	goto	u4551
  3740     0283  2A85               	goto	u4550
  3741     0284                     u4551:
  3742     0284  2B27               	goto	l3582
  3743     0285                     u4550:
  3744     0285                     l3576:
  3745                           
  3746                           ;washing_machine_function_def.c: 139:     {;washing_machine_function_def.c: 140:        
      +                           if(total_time >= (time-(0.4 * time)))
  3747     0285  0868               	movf	_total_time,w
  3748     0286  00D4               	movwf	??_run_program
  3749     0287  01D5               	clrf	??_run_program+1
  3750     0288  01D6               	clrf	??_run_program+2
  3751     0289  01D7               	clrf	??_run_program+3
  3752     028A  0857               	movf	??_run_program+3,w
  3753     028B  00F5               	movwf	___xxtofl@val+3
  3754     028C  0856               	movf	??_run_program+2,w
  3755     028D  00F4               	movwf	___xxtofl@val+2
  3756     028E  0855               	movf	??_run_program+1,w
  3757     028F  00F3               	movwf	___xxtofl@val+1
  3758     0290  0854               	movf	??_run_program,w
  3759     0291  00F2               	movwf	___xxtofl@val
  3760     0292  3001               	movlw	1
  3761     0293  120A  118A  2746  120A  118A  	fcall	___xxtofl
  3762     0298  0875               	movf	?___xxtofl+3,w
  3763     0299  1283               	bcf	3,5	;RP0=0, select bank0
  3764     029A  1303               	bcf	3,6	;RP1=0, select bank0
  3765     029B  00CB               	movwf	___flge@ff1+3
  3766     029C  0874               	movf	?___xxtofl+2,w
  3767     029D  00CA               	movwf	___flge@ff1+2
  3768     029E  0873               	movf	?___xxtofl+1,w
  3769     029F  00C9               	movwf	___flge@ff1+1
  3770     02A0  0872               	movf	?___xxtofl,w
  3771     02A1  00C8               	movwf	___flge@ff1
  3772     02A2  0864               	movf	_time,w
  3773     02A3  00D8               	movwf	??_run_program+4
  3774     02A4  01D9               	clrf	??_run_program+5
  3775     02A5  01DA               	clrf	??_run_program+6
  3776     02A6  01DB               	clrf	??_run_program+7
  3777     02A7  085B               	movf	??_run_program+7,w
  3778     02A8  00F5               	movwf	___xxtofl@val+3
  3779     02A9  085A               	movf	??_run_program+6,w
  3780     02AA  00F4               	movwf	___xxtofl@val+2
  3781     02AB  0859               	movf	??_run_program+5,w
  3782     02AC  00F3               	movwf	___xxtofl@val+1
  3783     02AD  0858               	movf	??_run_program+4,w
  3784     02AE  00F2               	movwf	___xxtofl@val
  3785     02AF  3001               	movlw	1
  3786     02B0  120A  118A  2746  120A  118A  	fcall	___xxtofl
  3787     02B5  0875               	movf	?___xxtofl+3,w
  3788     02B6  1283               	bcf	3,5	;RP0=0, select bank0
  3789     02B7  1303               	bcf	3,6	;RP1=0, select bank0
  3790     02B8  00C7               	movwf	___flsub@b+3
  3791     02B9  0874               	movf	?___xxtofl+2,w
  3792     02BA  00C6               	movwf	___flsub@b+2
  3793     02BB  0873               	movf	?___xxtofl+1,w
  3794     02BC  00C5               	movwf	___flsub@b+1
  3795     02BD  0872               	movf	?___xxtofl,w
  3796     02BE  00C4               	movwf	___flsub@b
  3797     02BF  0864               	movf	_time,w
  3798     02C0  00DC               	movwf	??_run_program+8
  3799     02C1  01DD               	clrf	??_run_program+9
  3800     02C2  01DE               	clrf	??_run_program+10
  3801     02C3  01DF               	clrf	??_run_program+11
  3802     02C4  085F               	movf	??_run_program+11,w
  3803     02C5  00F5               	movwf	___xxtofl@val+3
  3804     02C6  085E               	movf	??_run_program+10,w
  3805     02C7  00F4               	movwf	___xxtofl@val+2
  3806     02C8  085D               	movf	??_run_program+9,w
  3807     02C9  00F3               	movwf	___xxtofl@val+1
  3808     02CA  085C               	movf	??_run_program+8,w
  3809     02CB  00F2               	movwf	___xxtofl@val
  3810     02CC  3001               	movlw	1
  3811     02CD  120A  118A  2746  120A  118A  	fcall	___xxtofl
  3812     02D2  0875               	movf	?___xxtofl+3,w
  3813     02D3  1283               	bcf	3,5	;RP0=0, select bank0
  3814     02D4  1303               	bcf	3,6	;RP1=0, select bank0
  3815     02D5  00AD               	movwf	___flmul@a+3
  3816     02D6  0874               	movf	?___xxtofl+2,w
  3817     02D7  00AC               	movwf	___flmul@a+2
  3818     02D8  0873               	movf	?___xxtofl+1,w
  3819     02D9  00AB               	movwf	___flmul@a+1
  3820     02DA  0872               	movf	?___xxtofl,w
  3821     02DB  00AA               	movwf	___flmul@a
  3822     02DC  303E               	movlw	62
  3823     02DD  00A9               	movwf	___flmul@b+3
  3824     02DE  30CC               	movlw	204
  3825     02DF  00A8               	movwf	___flmul@b+2
  3826     02E0  30CC               	movlw	204
  3827     02E1  00A7               	movwf	___flmul@b+1
  3828     02E2  30CD               	movlw	205
  3829     02E3  00A6               	movwf	___flmul@b
  3830     02E4  120A  118A  2404  120A  118A  	fcall	___flmul
  3831     02E9  1283               	bcf	3,5	;RP0=0, select bank0
  3832     02EA  1303               	bcf	3,6	;RP1=0, select bank0
  3833     02EB  0829               	movf	?___flmul+3,w
  3834     02EC  00C3               	movwf	___flsub@a+3
  3835     02ED  0828               	movf	?___flmul+2,w
  3836     02EE  00C2               	movwf	___flsub@a+2
  3837     02EF  0827               	movf	?___flmul+1,w
  3838     02F0  00C1               	movwf	___flsub@a+1
  3839     02F1  0826               	movf	?___flmul,w
  3840     02F2  00C0               	movwf	___flsub@a
  3841     02F3  160A  118A  258F  120A  118A  	fcall	___flsub
  3842     02F8  1283               	bcf	3,5	;RP0=0, select bank0
  3843     02F9  1303               	bcf	3,6	;RP1=0, select bank0
  3844     02FA  0843               	movf	?___flsub+3,w
  3845     02FB  00CF               	movwf	___flge@ff2+3
  3846     02FC  0842               	movf	?___flsub+2,w
  3847     02FD  00CE               	movwf	___flge@ff2+2
  3848     02FE  0841               	movf	?___flsub+1,w
  3849     02FF  00CD               	movwf	___flge@ff2+1
  3850     0300  0840               	movf	?___flsub,w
  3851     0301  00CC               	movwf	___flge@ff2
  3852     0302  120A  158A  21C9  120A  118A  	fcall	___flge
  3853     0307  1C03               	btfss	3,0
  3854     0308  2B0A               	goto	u4561
  3855     0309  2B0B               	goto	u4560
  3856     030A                     u4561:
  3857     030A  2B19               	goto	l3580
  3858     030B                     u4560:
  3859     030B                     l3578:
  3860                           
  3861                           ;washing_machine_function_def.c: 141:         {;washing_machine_function_def.c: 142:    
      +                                  clcd_print("Rinse",(0x80 + 10));
  3862     030B  303F               	movlw	low (STR_35| (0+32768))
  3863     030C  1283               	bcf	3,5	;RP0=0, select bank0
  3864     030D  1303               	bcf	3,6	;RP1=0, select bank0
  3865     030E  00A0               	movwf	clcd_print@str
  3866     030F  3091               	movlw	high (STR_35| (0+32768))
  3867     0310  00A1               	movwf	clcd_print@str+1
  3868     0311  308A               	movlw	138
  3869     0312  00A2               	movwf	clcd_print@addr
  3870     0313  120A  158A  2012  120A  118A  	fcall	_clcd_print
  3871                           
  3872                           ;washing_machine_function_def.c: 143:         }
  3873     0318  2B44               	goto	l3588
  3874     0319                     l3580:
  3875                           
  3876                           ;washing_machine_function_def.c: 145:         {;washing_machine_function_def.c: 146:    
      +                                   clcd_print("Spin",(0x80 + 10));
  3877     0319  305B               	movlw	low (STR_36| (0+32768))
  3878     031A  1283               	bcf	3,5	;RP0=0, select bank0
  3879     031B  1303               	bcf	3,6	;RP1=0, select bank0
  3880     031C  00A0               	movwf	clcd_print@str
  3881     031D  3091               	movlw	high (STR_36| (0+32768))
  3882     031E  00A1               	movwf	clcd_print@str+1
  3883     031F  308A               	movlw	138
  3884     0320  00A2               	movwf	clcd_print@addr
  3885     0321  120A  158A  2012  120A  118A  	fcall	_clcd_print
  3886     0326  2B44               	goto	l3588
  3887     0327                     l3582:
  3888     0327  3009               	movlw	9
  3889     0328  066B               	xorwf	_program_no,w
  3890     0329  1D03               	btfss	3,2
  3891     032A  2B2C               	goto	u4571
  3892     032B  2B2D               	goto	u4570
  3893     032C                     u4571:
  3894     032C  2B39               	goto	l3586
  3895     032D                     u4570:
  3896     032D                     l3584:
  3897                           
  3898                           ;washing_machine_function_def.c: 150:     {;washing_machine_function_def.c: 151:        
      +                          clcd_print("Spin",(0x80 + 10));
  3899     032D  305B               	movlw	low (STR_36| (0+32768))
  3900     032E  00A0               	movwf	clcd_print@str
  3901     032F  3091               	movlw	high (STR_36| (0+32768))
  3902     0330  00A1               	movwf	clcd_print@str+1
  3903     0331  308A               	movlw	138
  3904     0332  00A2               	movwf	clcd_print@addr
  3905     0333  120A  158A  2012  120A  118A  	fcall	_clcd_print
  3906                           
  3907                           ;washing_machine_function_def.c: 152:     }
  3908     0338  2B44               	goto	l3588
  3909     0339                     l3586:
  3910                           
  3911                           ;washing_machine_function_def.c: 154:     {;washing_machine_function_def.c: 155:        
      +                           clcd_print("Wash",(0x80 + 0));
  3912     0339  3056               	movlw	low (STR_34| (0+32768))
  3913     033A  00A0               	movwf	clcd_print@str
  3914     033B  3091               	movlw	high (STR_34| (0+32768))
  3915     033C  00A1               	movwf	clcd_print@str+1
  3916     033D  3080               	movlw	128
  3917     033E  00A2               	movwf	clcd_print@addr
  3918     033F  120A  158A  2012  120A  118A  	fcall	_clcd_print
  3919     0344                     l3588:
  3920                           
  3921                           ;washing_machine_function_def.c: 157:     clcd_putch(min/10 + '0',(0xC0 + 6));
  3922     0344  30C6               	movlw	198
  3923     0345  1283               	bcf	3,5	;RP0=0, select bank0
  3924     0346  1303               	bcf	3,6	;RP1=0, select bank0
  3925     0347  00A0               	movwf	clcd_putch@addr
  3926     0348  300A               	movlw	10
  3927     0349  00F2               	movwf	___awdiv@divisor
  3928     034A  3000               	movlw	0
  3929     034B  00F3               	movwf	___awdiv@divisor+1
  3930     034C  0869               	movf	_min,w
  3931     034D  00D4               	movwf	??_run_program
  3932     034E  01D5               	clrf	??_run_program+1
  3933     034F  0854               	movf	??_run_program,w
  3934     0350  00F4               	movwf	___awdiv@dividend
  3935     0351  0855               	movf	??_run_program+1,w
  3936     0352  00F5               	movwf	___awdiv@dividend+1
  3937     0353  160A  118A  2735  120A  118A  	fcall	___awdiv
  3938     0358  0872               	movf	?___awdiv,w
  3939     0359  3E30               	addlw	48
  3940     035A  160A  118A  251E  120A  118A  	fcall	_clcd_putch
  3941     035F                     l3590:
  3942                           
  3943                           ;washing_machine_function_def.c: 158:     clcd_putch(min%10 + '0',(0xC0 + 7));
  3944     035F  30C7               	movlw	199
  3945     0360  1283               	bcf	3,5	;RP0=0, select bank0
  3946     0361  1303               	bcf	3,6	;RP1=0, select bank0
  3947     0362  00A0               	movwf	clcd_putch@addr
  3948     0363  300A               	movlw	10
  3949     0364  00F2               	movwf	___awmod@divisor
  3950     0365  3000               	movlw	0
  3951     0366  00F3               	movwf	___awmod@divisor+1
  3952     0367  0869               	movf	_min,w
  3953     0368  00D4               	movwf	??_run_program
  3954     0369  01D5               	clrf	??_run_program+1
  3955     036A  0854               	movf	??_run_program,w
  3956     036B  00F4               	movwf	___awmod@dividend
  3957     036C  0855               	movf	??_run_program+1,w
  3958     036D  00F5               	movwf	___awmod@dividend+1
  3959     036E  160A  118A  2680  120A  118A  	fcall	___awmod
  3960     0373  0872               	movf	?___awmod,w
  3961     0374  3E30               	addlw	48
  3962     0375  160A  118A  251E  120A  118A  	fcall	_clcd_putch
  3963     037A                     l3592:
  3964                           
  3965                           ;washing_machine_function_def.c: 159:     clcd_putch(':',(0xC0 + 8));
  3966     037A  30C8               	movlw	200
  3967     037B  1283               	bcf	3,5	;RP0=0, select bank0
  3968     037C  1303               	bcf	3,6	;RP1=0, select bank0
  3969     037D  00A0               	movwf	clcd_putch@addr
  3970     037E  303A               	movlw	58
  3971     037F  160A  118A  251E  120A  118A  	fcall	_clcd_putch
  3972     0384                     l3594:
  3973                           
  3974                           ;washing_machine_function_def.c: 160:     clcd_putch(sec/10 + '0',(0xC0 + 9));
  3975     0384  30C9               	movlw	201
  3976     0385  1283               	bcf	3,5	;RP0=0, select bank0
  3977     0386  1303               	bcf	3,6	;RP1=0, select bank0
  3978     0387  00A0               	movwf	clcd_putch@addr
  3979     0388  300A               	movlw	10
  3980     0389  00F2               	movwf	___awdiv@divisor
  3981     038A  3000               	movlw	0
  3982     038B  00F3               	movwf	___awdiv@divisor+1
  3983     038C  086A               	movf	_sec,w
  3984     038D  00D4               	movwf	??_run_program
  3985     038E  01D5               	clrf	??_run_program+1
  3986     038F  0854               	movf	??_run_program,w
  3987     0390  00F4               	movwf	___awdiv@dividend
  3988     0391  0855               	movf	??_run_program+1,w
  3989     0392  00F5               	movwf	___awdiv@dividend+1
  3990     0393  160A  118A  2735  120A  118A  	fcall	___awdiv
  3991     0398  0872               	movf	?___awdiv,w
  3992     0399  3E30               	addlw	48
  3993     039A  160A  118A  251E  120A  118A  	fcall	_clcd_putch
  3994     039F                     l3596:
  3995                           
  3996                           ;washing_machine_function_def.c: 161:     clcd_putch(sec%10 + '0',(0xC0 + 10));
  3997     039F  30CA               	movlw	202
  3998     03A0  1283               	bcf	3,5	;RP0=0, select bank0
  3999     03A1  1303               	bcf	3,6	;RP1=0, select bank0
  4000     03A2  00A0               	movwf	clcd_putch@addr
  4001     03A3  300A               	movlw	10
  4002     03A4  00F2               	movwf	___awmod@divisor
  4003     03A5  3000               	movlw	0
  4004     03A6  00F3               	movwf	___awmod@divisor+1
  4005     03A7  086A               	movf	_sec,w
  4006     03A8  00D4               	movwf	??_run_program
  4007     03A9  01D5               	clrf	??_run_program+1
  4008     03AA  0854               	movf	??_run_program,w
  4009     03AB  00F4               	movwf	___awmod@dividend
  4010     03AC  0855               	movf	??_run_program+1,w
  4011     03AD  00F5               	movwf	___awmod@dividend+1
  4012     03AE  160A  118A  2680  120A  118A  	fcall	___awmod
  4013     03B3  0872               	movf	?___awmod,w
  4014     03B4  3E30               	addlw	48
  4015     03B5  160A  118A  251E  120A  118A  	fcall	_clcd_putch
  4016     03BA                     l3598:
  4017                           
  4018                           ;washing_machine_function_def.c: 162:     if(min == 0 && sec == 0)
  4019     03BA  1283               	bcf	3,5	;RP0=0, select bank0
  4020     03BB  1303               	bcf	3,6	;RP1=0, select bank0
  4021     03BC  0869               	movf	_min,w
  4022     03BD  1D03               	btfss	3,2
  4023     03BE  2BC0               	goto	u4581
  4024     03BF  2BC1               	goto	u4580
  4025     03C0                     u4581:
  4026     03C0  2C03               	goto	l229
  4027     03C1                     u4580:
  4028     03C1                     l3600:
  4029     03C1  086A               	movf	_sec,w
  4030     03C2  1D03               	btfss	3,2
  4031     03C3  2BC5               	goto	u4591
  4032     03C4  2BC6               	goto	u4590
  4033     03C5                     u4591:
  4034     03C5  2C03               	goto	l229
  4035     03C6                     u4590:
  4036     03C6                     l3602:
  4037                           
  4038                           ;washing_machine_function_def.c: 163:     {;washing_machine_function_def.c: 164:        
      +                           clear_screen();
  4039     03C6  160A  118A  24E7  120A  118A  	fcall	_clear_screen
  4040     03CB                     l3604:
  4041                           
  4042                           ;washing_machine_function_def.c: 165:         RC2 = 0;
  4043     03CB  1283               	bcf	3,5	;RP0=0, select bank0
  4044     03CC  1303               	bcf	3,6	;RP1=0, select bank0
  4045     03CD  1107               	bcf	7,2	;volatile
  4046     03CE                     l3606:
  4047                           
  4048                           ;washing_machine_function_def.c: 166:         RC1 = 1;
  4049     03CE  1487               	bsf	7,1	;volatile
  4050     03CF                     l3608:
  4051                           
  4052                           ;washing_machine_function_def.c: 167:         clcd_print("Prog completed",(0x80 + 0));
  4053     03CF  3042               	movlw	low (STR_41| (0+32768))
  4054     03D0  00A0               	movwf	clcd_print@str
  4055     03D1  3090               	movlw	high (STR_41| (0+32768))
  4056     03D2  00A1               	movwf	clcd_print@str+1
  4057     03D3  3080               	movlw	128
  4058     03D4  00A2               	movwf	clcd_print@addr
  4059     03D5  120A  158A  2012  120A  118A  	fcall	_clcd_print
  4060     03DA                     l3610:
  4061                           
  4062                           ;washing_machine_function_def.c: 168:         clcd_print("Remove cloths",(0xC0 + 0));
  4063     03DA  3051               	movlw	low (STR_42| (0+32768))
  4064     03DB  1283               	bcf	3,5	;RP0=0, select bank0
  4065     03DC  1303               	bcf	3,6	;RP1=0, select bank0
  4066     03DD  00A0               	movwf	clcd_print@str
  4067     03DE  3090               	movlw	high (STR_42| (0+32768))
  4068     03DF  00A1               	movwf	clcd_print@str+1
  4069     03E0  30C0               	movlw	192
  4070     03E1  00A2               	movwf	clcd_print@addr
  4071     03E2  120A  158A  2012  120A  118A  	fcall	_clcd_print
  4072     03E7                     l3612:
  4073                           
  4074                           ;washing_machine_function_def.c: 169:         _delay((unsigned long)((2000)*(20000000/40
      +                          00.0)));
  4075     03E7  3033               	movlw	51
  4076     03E8  1283               	bcf	3,5	;RP0=0, select bank0
  4077     03E9  1303               	bcf	3,6	;RP1=0, select bank0
  4078     03EA  00D6               	movwf	??_run_program+2
  4079     03EB  30BB               	movlw	187
  4080     03EC  00D5               	movwf	??_run_program+1
  4081     03ED  30DF               	movlw	223
  4082     03EE  00D4               	movwf	??_run_program
  4083     03EF                     u4717:
  4084     03EF  0BD4               	decfsz	??_run_program,f
  4085     03F0  2BEF               	goto	u4717
  4086     03F1  0BD5               	decfsz	??_run_program+1,f
  4087     03F2  2BEF               	goto	u4717
  4088     03F3  0BD6               	decfsz	??_run_program+2,f
  4089     03F4  2BEF               	goto	u4717
  4090     03F5                     l3614:
  4091                           
  4092                           ;washing_machine_function_def.c: 171:         operational_mode = 0x01;
  4093     03F5  3001               	movlw	1
  4094     03F6  1283               	bcf	3,5	;RP0=0, select bank0
  4095     03F7  1303               	bcf	3,6	;RP1=0, select bank0
  4096     03F8  00EE               	movwf	_operational_mode
  4097     03F9                     l3616:
  4098                           
  4099                           ;washing_machine_function_def.c: 172:         reset_flag = 0x11;
  4100     03F9  3011               	movlw	17
  4101     03FA  00ED               	movwf	_reset_flag
  4102     03FB                     l3618:
  4103                           
  4104                           ;washing_machine_function_def.c: 173:         clear_screen();
  4105     03FB  160A  118A  24E7  120A  118A  	fcall	_clear_screen
  4106     0400                     l3620:
  4107                           
  4108                           ;washing_machine_function_def.c: 174:         RC1 = 0;
  4109     0400  1283               	bcf	3,5	;RP0=0, select bank0
  4110     0401  1303               	bcf	3,6	;RP1=0, select bank0
  4111     0402  1087               	bcf	7,1	;volatile
  4112     0403                     l229:
  4113     0403  0008               	return
  4114     0404                     __end_of_run_program:
  4115                           
  4116                           	psect	text5
  4117     16D7                     __ptext5:	
  4118 ;; *************** function _door_status_check *****************
  4119 ;; Defined at:
  4120 ;;		line 368 in file "washing_machine_function_def.c"
  4121 ;; Parameters:    Size  Location     Type
  4122 ;;		None
  4123 ;; Auto vars:     Size  Location     Type
  4124 ;;		None
  4125 ;; Return value:  Size  Location     Type
  4126 ;;                  1    wreg      void 
  4127 ;; Registers used:
  4128 ;;		wreg, fsr0l, fsr0h, status,2, status,0, btemp+1, pclath, cstack
  4129 ;; Tracked objects:
  4130 ;;		On entry : 0/0
  4131 ;;		On exit  : 0/0
  4132 ;;		Unchanged: 0/0
  4133 ;; Data sizes:     COMMON   BANK0   BANK1   BANK3   BANK2
  4134 ;;      Params:         0       0       0       0       0
  4135 ;;      Locals:         0       0       0       0       0
  4136 ;;      Temps:          0       0       0       0       0
  4137 ;;      Totals:         0       0       0       0       0
  4138 ;;Total ram usage:        0 bytes
  4139 ;; Hardware stack levels used: 1
  4140 ;; Hardware stack levels required when called: 3
  4141 ;; This function calls:
  4142 ;;		_clcd_print
  4143 ;;		_clear_screen
  4144 ;; This function is called by:
  4145 ;;		_run_program
  4146 ;; This function uses a non-reentrant model
  4147 ;;
  4148                           
  4149     16D7                     _door_status_check:	
  4150                           ;psect for function _door_status_check
  4151                           
  4152     16D7                     l3206:	
  4153                           ;incstack = 0
  4154                           ; Regs used in _door_status_check: [wreg-fsr0h+status,2+status,0+btemp+1+pclath+cstack]
  4155                           
  4156                           
  4157                           ;washing_machine_function_def.c: 370:     if(RB0 == 0)
  4158     16D7  1283               	bcf	3,5	;RP0=0, select bank0
  4159     16D8  1303               	bcf	3,6	;RP1=0, select bank0
  4160     16D9  1806               	btfsc	6,0	;volatile
  4161     16DA  2EDC               	goto	u3911
  4162     16DB  2EDD               	goto	u3910
  4163     16DC                     u3911:
  4164     16DC  2F34               	goto	l337
  4165     16DD                     u3910:
  4166     16DD                     l3208:
  4167                           
  4168                           ;washing_machine_function_def.c: 371:     {;washing_machine_function_def.c: 372:        
      +                           RC2 = 0;
  4169     16DD  1107               	bcf	7,2	;volatile
  4170                           
  4171                           ;washing_machine_function_def.c: 373:         TMR2ON = 0;
  4172     16DE  1112               	bcf	18,2	;volatile
  4173                           
  4174                           ;washing_machine_function_def.c: 374:         RC1 = 1;
  4175     16DF  1487               	bsf	7,1	;volatile
  4176     16E0                     l3210:
  4177                           
  4178                           ;washing_machine_function_def.c: 375:         clear_screen();
  4179     16E0  160A  118A  24E7  160A  118A  	fcall	_clear_screen
  4180     16E5                     l3212:
  4181                           
  4182                           ;washing_machine_function_def.c: 376:         clcd_print("Door is open",(0x80 + 0));
  4183     16E5  307A               	movlw	low (STR_43| (0+32768))
  4184     16E6  1283               	bcf	3,5	;RP0=0, select bank0
  4185     16E7  1303               	bcf	3,6	;RP1=0, select bank0
  4186     16E8  00A0               	movwf	clcd_print@str
  4187     16E9  3090               	movlw	high (STR_43| (0+32768))
  4188     16EA  00A1               	movwf	clcd_print@str+1
  4189     16EB  3080               	movlw	128
  4190     16EC  00A2               	movwf	clcd_print@addr
  4191     16ED  120A  158A  2012  160A  118A  	fcall	_clcd_print
  4192     16F2                     l3214:
  4193                           
  4194                           ;washing_machine_function_def.c: 377:         clcd_print("Please close door",(0xC0 + 0))
      +                          ;
  4195     16F2  3000               	movlw	low (STR_44| (0+32768))
  4196     16F3  1283               	bcf	3,5	;RP0=0, select bank0
  4197     16F4  1303               	bcf	3,6	;RP1=0, select bank0
  4198     16F5  00A0               	movwf	clcd_print@str
  4199     16F6  3090               	movlw	high (STR_44| (0+32768))
  4200     16F7  00A1               	movwf	clcd_print@str+1
  4201     16F8  30C0               	movlw	192
  4202     16F9  00A2               	movwf	clcd_print@addr
  4203     16FA  120A  158A  2012  160A  118A  	fcall	_clcd_print
  4204     16FF                     l334:	
  4205                           ;washing_machine_function_def.c: 379:         {;washing_machine_function_def.c: 381:    
      +                               }
  4206                           
  4207                           
  4208                           ;washing_machine_function_def.c: 378:         while(RB0 == 0)
  4209     16FF  1283               	bcf	3,5	;RP0=0, select bank0
  4210     1700  1303               	bcf	3,6	;RP1=0, select bank0
  4211     1701  1C06               	btfss	6,0	;volatile
  4212     1702  2F04               	goto	u3921
  4213     1703  2F05               	goto	u3920
  4214     1704                     u3921:
  4215     1704  2EFF               	goto	l334
  4216     1705                     u3920:
  4217     1705                     l336:
  4218                           
  4219                           ;washing_machine_function_def.c: 382:         RC2 = 1;
  4220     1705  1507               	bsf	7,2	;volatile
  4221                           
  4222                           ;washing_machine_function_def.c: 383:         TMR2ON = 1;
  4223     1706  1512               	bsf	18,2	;volatile
  4224                           
  4225                           ;washing_machine_function_def.c: 384:         RC1 = 0;
  4226     1707  1087               	bcf	7,1	;volatile
  4227     1708                     l3216:
  4228                           
  4229                           ;washing_machine_function_def.c: 385:         clear_screen();
  4230     1708  160A  118A  24E7  160A  118A  	fcall	_clear_screen
  4231     170D                     l3218:
  4232                           
  4233                           ;washing_machine_function_def.c: 386:         clcd_print("Function:",(0x80 + 0));
  4234     170D  30E3               	movlw	low (STR_31| (0+32768))
  4235     170E  1283               	bcf	3,5	;RP0=0, select bank0
  4236     170F  1303               	bcf	3,6	;RP1=0, select bank0
  4237     1710  00A0               	movwf	clcd_print@str
  4238     1711  3090               	movlw	high (STR_31| (0+32768))
  4239     1712  00A1               	movwf	clcd_print@str+1
  4240     1713  3080               	movlw	128
  4241     1714  00A2               	movwf	clcd_print@addr
  4242     1715  120A  158A  2012  160A  118A  	fcall	_clcd_print
  4243     171A                     l3220:
  4244                           
  4245                           ;washing_machine_function_def.c: 387:         clcd_print("Time:",(0xC0 + 0));
  4246     171A  3033               	movlw	low (STR_30| (0+32768))
  4247     171B  1283               	bcf	3,5	;RP0=0, select bank0
  4248     171C  1303               	bcf	3,6	;RP1=0, select bank0
  4249     171D  00A0               	movwf	clcd_print@str
  4250     171E  3091               	movlw	high (STR_30| (0+32768))
  4251     171F  00A1               	movwf	clcd_print@str+1
  4252     1720  30C0               	movlw	192
  4253     1721  00A2               	movwf	clcd_print@addr
  4254     1722  120A  158A  2012  160A  118A  	fcall	_clcd_print
  4255     1727                     l3222:
  4256                           
  4257                           ;washing_machine_function_def.c: 388:         clcd_print("5:START 6:PAUSE",(0x90 + 0));
  4258     1727  3012               	movlw	low (STR_33| (0+32768))
  4259     1728  1283               	bcf	3,5	;RP0=0, select bank0
  4260     1729  1303               	bcf	3,6	;RP1=0, select bank0
  4261     172A  00A0               	movwf	clcd_print@str
  4262     172B  3090               	movlw	high (STR_33| (0+32768))
  4263     172C  00A1               	movwf	clcd_print@str+1
  4264     172D  3090               	movlw	144
  4265     172E  00A2               	movwf	clcd_print@addr
  4266     172F  120A  158A  2012  160A  118A  	fcall	_clcd_print
  4267     1734                     l337:
  4268     1734  0008               	return
  4269     1735                     __end_of_door_status_check:
  4270                           
  4271                           	psect	text6
  4272     14E7                     __ptext6:	
  4273 ;; *************** function _clear_screen *****************
  4274 ;; Defined at:
  4275 ;;		line 391 in file "washing_machine_function_def.c"
  4276 ;; Parameters:    Size  Location     Type
  4277 ;;		None
  4278 ;; Auto vars:     Size  Location     Type
  4279 ;;		None
  4280 ;; Return value:  Size  Location     Type
  4281 ;;                  1    wreg      void 
  4282 ;; Registers used:
  4283 ;;		wreg, status,2, status,0, pclath, cstack
  4284 ;; Tracked objects:
  4285 ;;		On entry : 0/0
  4286 ;;		On exit  : 0/0
  4287 ;;		Unchanged: 0/0
  4288 ;; Data sizes:     COMMON   BANK0   BANK1   BANK3   BANK2
  4289 ;;      Params:         0       0       0       0       0
  4290 ;;      Locals:         0       0       0       0       0
  4291 ;;      Temps:          2       0       0       0       0
  4292 ;;      Totals:         2       0       0       0       0
  4293 ;;Total ram usage:        2 bytes
  4294 ;; Hardware stack levels used: 1
  4295 ;; Hardware stack levels required when called: 2
  4296 ;; This function calls:
  4297 ;;		_clcd_write
  4298 ;; This function is called by:
  4299 ;;		_main
  4300 ;;		_washing_program_display
  4301 ;;		_water_level_screen
  4302 ;;		_run_program
  4303 ;;		_door_status_check
  4304 ;; This function uses a non-reentrant model
  4305 ;;
  4306                           
  4307     14E7                     _clear_screen:	
  4308                           ;psect for function _clear_screen
  4309                           
  4310     14E7                     l3178:	
  4311                           ;incstack = 0
  4312                           ; Regs used in _clear_screen: [wreg+status,2+status,0+pclath+cstack]
  4313                           
  4314                           
  4315                           ;washing_machine_function_def.c: 393:     clcd_write(0x01, 0);
  4316     14E7  01F2               	clrf	clcd_write@mode
  4317     14E8  3001               	movlw	1
  4318     14E9  160A  118A  254D  160A  118A  	fcall	_clcd_write
  4319     14EE                     l3180:
  4320                           
  4321                           ;washing_machine_function_def.c: 394:     _delay((unsigned long)((500)*(20000000/4000000
      +                          .0)));
  4322     14EE  3004               	movlw	4
  4323     14EF  00F7               	movwf	??_clear_screen+1
  4324     14F0  303D               	movlw	61
  4325     14F1  00F6               	movwf	??_clear_screen
  4326     14F2                     u4727:
  4327     14F2  0BF6               	decfsz	??_clear_screen,f
  4328     14F3  2CF2               	goto	u4727
  4329     14F4  0BF7               	decfsz	??_clear_screen+1,f
  4330     14F5  2CF2               	goto	u4727
  4331     14F6  2CF7               	nop2
  4332     14F7                     l340:
  4333     14F7  0008               	return
  4334     14F8                     __end_of_clear_screen:
  4335                           
  4336                           	psect	text7
  4337     0746                     __ptext7:	
  4338 ;; *************** function ___xxtofl *****************
  4339 ;; Defined at:
  4340 ;;		line 10 in file "C:\Program Files\Microchip\xc8\v3.00\pic\sources\c99\common\xxtofl.c"
  4341 ;; Parameters:    Size  Location     Type
  4342 ;;  sign            1    wreg     unsigned char 
  4343 ;;  val             4    2[COMMON] long 
  4344 ;; Auto vars:     Size  Location     Type
  4345 ;;  sign            1    0[BANK0 ] unsigned char 
  4346 ;;  arg             4    2[BANK0 ] unsigned long 
  4347 ;;  exp             1    1[BANK0 ] unsigned char 
  4348 ;; Return value:  Size  Location     Type
  4349 ;;                  4    2[COMMON] unsigned char 
  4350 ;; Registers used:
  4351 ;;		wreg, status,2, status,0
  4352 ;; Tracked objects:
  4353 ;;		On entry : 0/0
  4354 ;;		On exit  : 0/0
  4355 ;;		Unchanged: 0/0
  4356 ;; Data sizes:     COMMON   BANK0   BANK1   BANK3   BANK2
  4357 ;;      Params:         4       0       0       0       0
  4358 ;;      Locals:         0       6       0       0       0
  4359 ;;      Temps:          4       0       0       0       0
  4360 ;;      Totals:         8       6       0       0       0
  4361 ;;Total ram usage:       14 bytes
  4362 ;; Hardware stack levels used: 1
  4363 ;; Hardware stack levels required when called: 1
  4364 ;; This function calls:
  4365 ;;		Nothing
  4366 ;; This function is called by:
  4367 ;;		_run_program
  4368 ;; This function uses a non-reentrant model
  4369 ;;
  4370                           
  4371     0746                     ___xxtofl:	
  4372                           ;psect for function ___xxtofl
  4373                           
  4374                           
  4375                           ;incstack = 0
  4376                           ; Regs used in ___xxtofl: [wreg+status,2+status,0]
  4377                           ;___xxtofl@sign stored from wreg
  4378     0746  1283               	bcf	3,5	;RP0=0, select bank0
  4379     0747  1303               	bcf	3,6	;RP1=0, select bank0
  4380     0748  00A0               	movwf	___xxtofl@sign
  4381     0749                     l2606:
  4382     0749  0820               	movf	___xxtofl@sign,w
  4383     074A  1903               	btfsc	3,2
  4384     074B  2F4D               	goto	u3221
  4385     074C  2F4E               	goto	u3220
  4386     074D                     u3221:
  4387     074D  2F62               	goto	l2612
  4388     074E                     u3220:
  4389     074E                     l2608:
  4390     074E  1FF5               	btfss	___xxtofl@val+3,7
  4391     074F  2F51               	goto	u3231
  4392     0750  2F52               	goto	u3230
  4393     0751                     u3231:
  4394     0751  2F62               	goto	l2612
  4395     0752                     u3230:
  4396     0752                     l2610:
  4397     0752  0972               	comf	___xxtofl@val,w
  4398     0753  00A2               	movwf	___xxtofl@arg
  4399     0754  0973               	comf	___xxtofl@val+1,w
  4400     0755  00A3               	movwf	___xxtofl@arg+1
  4401     0756  0974               	comf	___xxtofl@val+2,w
  4402     0757  00A4               	movwf	___xxtofl@arg+2
  4403     0758  0975               	comf	___xxtofl@val+3,w
  4404     0759  00A5               	movwf	___xxtofl@arg+3
  4405     075A  0AA2               	incf	___xxtofl@arg,f
  4406     075B  1903               	skipnz
  4407     075C  0AA3               	incf	___xxtofl@arg+1,f
  4408     075D  1903               	skipnz
  4409     075E  0AA4               	incf	___xxtofl@arg+2,f
  4410     075F  1903               	skipnz
  4411     0760  0AA5               	incf	___xxtofl@arg+3,f
  4412     0761  2F6A               	goto	l885
  4413     0762                     l2612:
  4414     0762  0875               	movf	___xxtofl@val+3,w
  4415     0763  00A5               	movwf	___xxtofl@arg+3
  4416     0764  0874               	movf	___xxtofl@val+2,w
  4417     0765  00A4               	movwf	___xxtofl@arg+2
  4418     0766  0873               	movf	___xxtofl@val+1,w
  4419     0767  00A3               	movwf	___xxtofl@arg+1
  4420     0768  0872               	movf	___xxtofl@val,w
  4421     0769  00A2               	movwf	___xxtofl@arg
  4422     076A                     l885:
  4423     076A  0875               	movf	___xxtofl@val+3,w
  4424     076B  0474               	iorwf	___xxtofl@val+2,w
  4425     076C  0473               	iorwf	___xxtofl@val+1,w
  4426     076D  0472               	iorwf	___xxtofl@val,w
  4427     076E  1D03               	skipz
  4428     076F  2F71               	goto	u3241
  4429     0770  2F72               	goto	u3240
  4430     0771                     u3241:
  4431     0771  2F7B               	goto	l886
  4432     0772                     u3240:
  4433     0772                     l2614:
  4434     0772  3000               	movlw	0
  4435     0773  00F5               	movwf	?___xxtofl+3
  4436     0774  3000               	movlw	0
  4437     0775  00F4               	movwf	?___xxtofl+2
  4438     0776  3000               	movlw	0
  4439     0777  00F3               	movwf	?___xxtofl+1
  4440     0778  3000               	movlw	0
  4441     0779  00F2               	movwf	?___xxtofl
  4442     077A  2FFB               	goto	l887
  4443     077B                     l886:
  4444     077B  3096               	movlw	150
  4445     077C  00A1               	movwf	___xxtofl@exp
  4446     077D  2F89               	goto	l2620
  4447     077E                     l2618:
  4448     077E  3001               	movlw	1
  4449     077F  07A1               	addwf	___xxtofl@exp,f
  4450     0780  3001               	movlw	1
  4451     0781                     u3255:
  4452     0781  1003               	clrc
  4453     0782  0CA5               	rrf	___xxtofl@arg+3,f
  4454     0783  0CA4               	rrf	___xxtofl@arg+2,f
  4455     0784  0CA3               	rrf	___xxtofl@arg+1,f
  4456     0785  0CA2               	rrf	___xxtofl@arg,f
  4457     0786  3EFF               	addlw	-1
  4458     0787  1D03               	skipz
  4459     0788  2F81               	goto	u3255
  4460     0789                     l2620:
  4461     0789  30FE               	movlw	254
  4462     078A  0525               	andwf	___xxtofl@arg+3,w
  4463     078B  1D03               	btfss	3,2
  4464     078C  2F8E               	goto	u3261
  4465     078D  2F8F               	goto	u3260
  4466     078E                     u3261:
  4467     078E  2F7E               	goto	l2618
  4468     078F                     u3260:
  4469     078F  2FA9               	goto	l891
  4470     0790                     l2622:
  4471     0790  3001               	movlw	1
  4472     0791  07A1               	addwf	___xxtofl@exp,f
  4473     0792                     l2624:
  4474     0792  3001               	movlw	1
  4475     0793  07A2               	addwf	___xxtofl@arg,f
  4476     0794  3000               	movlw	0
  4477     0795  1803               	skipnc
  4478     0796  3001               	movlw	1
  4479     0797  07A3               	addwf	___xxtofl@arg+1,f
  4480     0798  3000               	movlw	0
  4481     0799  1803               	skipnc
  4482     079A  3001               	movlw	1
  4483     079B  07A4               	addwf	___xxtofl@arg+2,f
  4484     079C  3000               	movlw	0
  4485     079D  1803               	skipnc
  4486     079E  3001               	movlw	1
  4487     079F  07A5               	addwf	___xxtofl@arg+3,f
  4488     07A0                     l2626:
  4489     07A0  3001               	movlw	1
  4490     07A1                     u3275:
  4491     07A1  1003               	clrc
  4492     07A2  0CA5               	rrf	___xxtofl@arg+3,f
  4493     07A3  0CA4               	rrf	___xxtofl@arg+2,f
  4494     07A4  0CA3               	rrf	___xxtofl@arg+1,f
  4495     07A5  0CA2               	rrf	___xxtofl@arg,f
  4496     07A6  3EFF               	addlw	-1
  4497     07A7  1D03               	skipz
  4498     07A8  2FA1               	goto	u3275
  4499     07A9                     l891:
  4500     07A9  30FF               	movlw	255
  4501     07AA  0525               	andwf	___xxtofl@arg+3,w
  4502     07AB  1D03               	btfss	3,2
  4503     07AC  2FAE               	goto	u3281
  4504     07AD  2FAF               	goto	u3280
  4505     07AE                     u3281:
  4506     07AE  2F90               	goto	l2622
  4507     07AF                     u3280:
  4508     07AF  2FBB               	goto	l2630
  4509     07B0                     l2628:
  4510     07B0  3001               	movlw	1
  4511     07B1  02A1               	subwf	___xxtofl@exp,f
  4512     07B2  3001               	movlw	1
  4513     07B3  00F6               	movwf	??___xxtofl
  4514     07B4                     u3295:
  4515     07B4  1003               	clrc
  4516     07B5  0DA2               	rlf	___xxtofl@arg,f
  4517     07B6  0DA3               	rlf	___xxtofl@arg+1,f
  4518     07B7  0DA4               	rlf	___xxtofl@arg+2,f
  4519     07B8  0DA5               	rlf	___xxtofl@arg+3,f
  4520     07B9  0BF6               	decfsz	??___xxtofl,f
  4521     07BA  2FB4               	goto	u3295
  4522     07BB                     l2630:
  4523     07BB  1BA4               	btfsc	___xxtofl@arg+2,7
  4524     07BC  2FBE               	goto	u3301
  4525     07BD  2FBF               	goto	u3300
  4526     07BE                     u3301:
  4527     07BE  2FC5               	goto	l898
  4528     07BF                     u3300:
  4529     07BF                     l2632:
  4530     07BF  3002               	movlw	2
  4531     07C0  0221               	subwf	___xxtofl@exp,w
  4532     07C1  1803               	skipnc
  4533     07C2  2FC4               	goto	u3311
  4534     07C3  2FC5               	goto	u3310
  4535     07C4                     u3311:
  4536     07C4  2FB0               	goto	l2628
  4537     07C5                     u3310:
  4538     07C5                     l898:
  4539     07C5  1821               	btfsc	___xxtofl@exp,0
  4540     07C6  2FC8               	goto	u3321
  4541     07C7  2FC9               	goto	u3320
  4542     07C8                     u3321:
  4543     07C8  2FD1               	goto	l899
  4544     07C9                     u3320:
  4545     07C9                     l2634:
  4546     07C9  30FF               	movlw	255
  4547     07CA  05A2               	andwf	___xxtofl@arg,f
  4548     07CB  30FF               	movlw	255
  4549     07CC  05A3               	andwf	___xxtofl@arg+1,f
  4550     07CD  307F               	movlw	127
  4551     07CE  05A4               	andwf	___xxtofl@arg+2,f
  4552     07CF  30FF               	movlw	255
  4553     07D0  05A5               	andwf	___xxtofl@arg+3,f
  4554     07D1                     l899:
  4555     07D1  1003               	clrc
  4556     07D2  0CA1               	rrf	___xxtofl@exp,f
  4557     07D3                     l2636:
  4558     07D3  0821               	movf	___xxtofl@exp,w
  4559     07D4  00F6               	movwf	??___xxtofl
  4560     07D5  01F7               	clrf	??___xxtofl+1
  4561     07D6  01F8               	clrf	??___xxtofl+2
  4562     07D7  01F9               	clrf	??___xxtofl+3
  4563     07D8  3018               	movlw	24
  4564     07D9                     u3335:
  4565     07D9  1003               	clrc
  4566     07DA  0DF6               	rlf	??___xxtofl,f
  4567     07DB  0DF7               	rlf	??___xxtofl+1,f
  4568     07DC  0DF8               	rlf	??___xxtofl+2,f
  4569     07DD  0DF9               	rlf	??___xxtofl+3,f
  4570     07DE                     u3330:
  4571     07DE  3EFF               	addlw	-1
  4572     07DF  1D03               	skipz
  4573     07E0  2FD9               	goto	u3335
  4574     07E1  0876               	movf	??___xxtofl,w
  4575     07E2  04A2               	iorwf	___xxtofl@arg,f
  4576     07E3  0877               	movf	??___xxtofl+1,w
  4577     07E4  04A3               	iorwf	___xxtofl@arg+1,f
  4578     07E5  0878               	movf	??___xxtofl+2,w
  4579     07E6  04A4               	iorwf	___xxtofl@arg+2,f
  4580     07E7  0879               	movf	??___xxtofl+3,w
  4581     07E8  04A5               	iorwf	___xxtofl@arg+3,f
  4582     07E9                     l2638:
  4583     07E9  0820               	movf	___xxtofl@sign,w
  4584     07EA  1903               	btfsc	3,2
  4585     07EB  2FED               	goto	u3341
  4586     07EC  2FEE               	goto	u3340
  4587     07ED                     u3341:
  4588     07ED  2FF3               	goto	l2644
  4589     07EE                     u3340:
  4590     07EE                     l2640:
  4591     07EE  1FF5               	btfss	___xxtofl@val+3,7
  4592     07EF  2FF1               	goto	u3351
  4593     07F0  2FF2               	goto	u3350
  4594     07F1                     u3351:
  4595     07F1  2FF3               	goto	l2644
  4596     07F2                     u3350:
  4597     07F2                     l2642:
  4598     07F2  17A5               	bsf	___xxtofl@arg+3,7
  4599     07F3                     l2644:
  4600     07F3  0825               	movf	___xxtofl@arg+3,w
  4601     07F4  00F5               	movwf	?___xxtofl+3
  4602     07F5  0824               	movf	___xxtofl@arg+2,w
  4603     07F6  00F4               	movwf	?___xxtofl+2
  4604     07F7  0823               	movf	___xxtofl@arg+1,w
  4605     07F8  00F3               	movwf	?___xxtofl+1
  4606     07F9  0822               	movf	___xxtofl@arg,w
  4607     07FA  00F2               	movwf	?___xxtofl
  4608     07FB                     l887:
  4609     07FB  0008               	return
  4610     07FC                     __end_of___xxtofl:
  4611                           
  4612                           	psect	text8
  4613     08B3                     __ptext8:	
  4614 ;; *************** function ___fltol *****************
  4615 ;; Defined at:
  4616 ;;		line 43 in file "C:\Program Files\Microchip\xc8\v3.00\pic\sources\c99\common\fltol.c"
  4617 ;; Parameters:    Size  Location     Type
  4618 ;;  f1              4   32[BANK0 ] unsigned char 
  4619 ;; Auto vars:     Size  Location     Type
  4620 ;;  exp1            1   41[BANK0 ] unsigned char 
  4621 ;;  sign1           1   40[BANK0 ] unsigned char 
  4622 ;; Return value:  Size  Location     Type
  4623 ;;                  4   32[BANK0 ] long 
  4624 ;; Registers used:
  4625 ;;		wreg, status,2, status,0
  4626 ;; Tracked objects:
  4627 ;;		On entry : 0/0
  4628 ;;		On exit  : 0/0
  4629 ;;		Unchanged: 0/0
  4630 ;; Data sizes:     COMMON   BANK0   BANK1   BANK3   BANK2
  4631 ;;      Params:         0       4       0       0       0
  4632 ;;      Locals:         0       2       0       0       0
  4633 ;;      Temps:          0       4       0       0       0
  4634 ;;      Totals:         0      10       0       0       0
  4635 ;;Total ram usage:       10 bytes
  4636 ;; Hardware stack levels used: 1
  4637 ;; Hardware stack levels required when called: 1
  4638 ;; This function calls:
  4639 ;;		Nothing
  4640 ;; This function is called by:
  4641 ;;		_run_program
  4642 ;; This function uses a non-reentrant model
  4643 ;;
  4644                           
  4645     08B3                     ___fltol:	
  4646                           ;psect for function ___fltol
  4647                           
  4648     08B3                     l2422:	
  4649                           ;incstack = 0
  4650                           ; Regs used in ___fltol: [wreg+status,2+status,0]
  4651                           
  4652     08B3  1003               	clrc
  4653     08B4  1283               	bcf	3,5	;RP0=0, select bank0
  4654     08B5  1303               	bcf	3,6	;RP1=0, select bank0
  4655     08B6  0D42               	rlf	___fltol@f1+2,w
  4656     08B7  0D43               	rlf	___fltol@f1+3,w
  4657     08B8  00C9               	movwf	___fltol@exp1
  4658     08B9  0849               	movf	___fltol@exp1,w
  4659     08BA  1D03               	btfss	3,2
  4660     08BB  28BD               	goto	u2751
  4661     08BC  28BE               	goto	u2750
  4662     08BD                     u2751:
  4663     08BD  28C7               	goto	l2428
  4664     08BE                     u2750:
  4665     08BE                     l2424:
  4666     08BE  3000               	movlw	0
  4667     08BF  00C3               	movwf	?___fltol+3
  4668     08C0  3000               	movlw	0
  4669     08C1  00C2               	movwf	?___fltol+2
  4670     08C2  3000               	movlw	0
  4671     08C3  00C1               	movwf	?___fltol+1
  4672     08C4  3000               	movlw	0
  4673     08C5  00C0               	movwf	?___fltol
  4674     08C6  2928               	goto	l638
  4675     08C7                     l2428:
  4676     08C7  0840               	movf	___fltol@f1,w
  4677     08C8  00C4               	movwf	??___fltol
  4678     08C9  0841               	movf	___fltol@f1+1,w
  4679     08CA  00C5               	movwf	??___fltol+1
  4680     08CB  0842               	movf	___fltol@f1+2,w
  4681     08CC  00C6               	movwf	??___fltol+2
  4682     08CD  0843               	movf	___fltol@f1+3,w
  4683     08CE  00C7               	movwf	??___fltol+3
  4684     08CF  301F               	movlw	31
  4685     08D0                     u2765:
  4686     08D0  1003               	clrc
  4687     08D1  0CC7               	rrf	??___fltol+3,f
  4688     08D2  0CC6               	rrf	??___fltol+2,f
  4689     08D3  0CC5               	rrf	??___fltol+1,f
  4690     08D4  0CC4               	rrf	??___fltol,f
  4691     08D5                     u2760:
  4692     08D5  3EFF               	addlw	-1
  4693     08D6  1D03               	skipz
  4694     08D7  28D0               	goto	u2765
  4695     08D8  0844               	movf	??___fltol,w
  4696     08D9  00C8               	movwf	___fltol@sign1
  4697     08DA                     l2430:
  4698     08DA  17C2               	bsf	___fltol@f1+2,7
  4699     08DB                     l2432:
  4700     08DB  30FF               	movlw	255
  4701     08DC  05C0               	andwf	___fltol@f1,f
  4702     08DD  30FF               	movlw	255
  4703     08DE  05C1               	andwf	___fltol@f1+1,f
  4704     08DF  30FF               	movlw	255
  4705     08E0  05C2               	andwf	___fltol@f1+2,f
  4706     08E1  3000               	movlw	0
  4707     08E2  05C3               	andwf	___fltol@f1+3,f
  4708     08E3                     l2434:
  4709     08E3  3096               	movlw	150
  4710     08E4  02C9               	subwf	___fltol@exp1,f
  4711     08E5                     l2436:
  4712     08E5  1FC9               	btfss	___fltol@exp1,7
  4713     08E6  28E8               	goto	u2771
  4714     08E7  28E9               	goto	u2770
  4715     08E8                     u2771:
  4716     08E8  2901               	goto	l2446
  4717     08E9                     u2770:
  4718     08E9                     l2438:
  4719     08E9  0849               	movf	___fltol@exp1,w
  4720     08EA  3A80               	xorlw	128
  4721     08EB  3E97               	addlw	151
  4722     08EC  1803               	skipnc
  4723     08ED  28EF               	goto	u2781
  4724     08EE  28F0               	goto	u2780
  4725     08EF                     u2781:
  4726     08EF  28F1               	goto	l2444
  4727     08F0                     u2780:
  4728     08F0  28BE               	goto	l2424
  4729     08F1                     l2444:
  4730     08F1  3001               	movlw	1
  4731     08F2                     u2795:
  4732     08F2  1003               	clrc
  4733     08F3  0CC3               	rrf	___fltol@f1+3,f
  4734     08F4  0CC2               	rrf	___fltol@f1+2,f
  4735     08F5  0CC1               	rrf	___fltol@f1+1,f
  4736     08F6  0CC0               	rrf	___fltol@f1,f
  4737     08F7  3EFF               	addlw	-1
  4738     08F8  1D03               	skipz
  4739     08F9  28F2               	goto	u2795
  4740     08FA  3001               	movlw	1
  4741     08FB  07C9               	addwf	___fltol@exp1,f
  4742     08FC  1D03               	btfss	3,2
  4743     08FD  28FF               	goto	u2801
  4744     08FE  2900               	goto	u2800
  4745     08FF                     u2801:
  4746     08FF  28F1               	goto	l2444
  4747     0900                     u2800:
  4748     0900  2918               	goto	l2454
  4749     0901                     l2446:
  4750     0901  3020               	movlw	32
  4751     0902  0249               	subwf	___fltol@exp1,w
  4752     0903  1C03               	skipc
  4753     0904  2906               	goto	u2811
  4754     0905  2907               	goto	u2810
  4755     0906                     u2811:
  4756     0906  2913               	goto	l645
  4757     0907                     u2810:
  4758     0907  28BE               	goto	l2424
  4759     0908                     l2452:
  4760     0908  3001               	movlw	1
  4761     0909  00C4               	movwf	??___fltol
  4762     090A                     u2825:
  4763     090A  1003               	clrc
  4764     090B  0DC0               	rlf	___fltol@f1,f
  4765     090C  0DC1               	rlf	___fltol@f1+1,f
  4766     090D  0DC2               	rlf	___fltol@f1+2,f
  4767     090E  0DC3               	rlf	___fltol@f1+3,f
  4768     090F  0BC4               	decfsz	??___fltol,f
  4769     0910  290A               	goto	u2825
  4770     0911  3001               	movlw	1
  4771     0912  02C9               	subwf	___fltol@exp1,f
  4772     0913                     l645:
  4773     0913  0849               	movf	___fltol@exp1,w
  4774     0914  1D03               	btfss	3,2
  4775     0915  2917               	goto	u2831
  4776     0916  2918               	goto	u2830
  4777     0917                     u2831:
  4778     0917  2908               	goto	l2452
  4779     0918                     u2830:
  4780     0918                     l2454:
  4781     0918  0848               	movf	___fltol@sign1,w
  4782     0919  1903               	btfsc	3,2
  4783     091A  291C               	goto	u2841
  4784     091B  291D               	goto	u2840
  4785     091C                     u2841:
  4786     091C  2928               	goto	l648
  4787     091D                     u2840:
  4788     091D                     l2456:
  4789     091D  09C0               	comf	___fltol@f1,f
  4790     091E  09C1               	comf	___fltol@f1+1,f
  4791     091F  09C2               	comf	___fltol@f1+2,f
  4792     0920  09C3               	comf	___fltol@f1+3,f
  4793     0921  0AC0               	incf	___fltol@f1,f
  4794     0922  1903               	skipnz
  4795     0923  0AC1               	incf	___fltol@f1+1,f
  4796     0924  1903               	skipnz
  4797     0925  0AC2               	incf	___fltol@f1+2,f
  4798     0926  1903               	skipnz
  4799     0927  0AC3               	incf	___fltol@f1+3,f
  4800     0928                     l648:
  4801     0928                     l638:
  4802     0928  0008               	return
  4803     0929                     __end_of___fltol:
  4804                           
  4805                           	psect	text9
  4806     158F                     __ptext9:	
  4807 ;; *************** function ___flsub *****************
  4808 ;; Defined at:
  4809 ;;		line 242 in file "C:\Program Files\Microchip\xc8\v3.00\pic\sources\c99\common\sprcadd.c"
  4810 ;; Parameters:    Size  Location     Type
  4811 ;;  a               4   32[BANK0 ] long 
  4812 ;;  b               4   36[BANK0 ] long 
  4813 ;; Auto vars:     Size  Location     Type
  4814 ;;		None
  4815 ;; Return value:  Size  Location     Type
  4816 ;;                  4   32[BANK0 ] long 
  4817 ;; Registers used:
  4818 ;;		wreg, status,2, status,0, btemp+1, pclath, cstack
  4819 ;; Tracked objects:
  4820 ;;		On entry : 0/0
  4821 ;;		On exit  : 0/0
  4822 ;;		Unchanged: 0/0
  4823 ;; Data sizes:     COMMON   BANK0   BANK1   BANK3   BANK2
  4824 ;;      Params:         0       8       0       0       0
  4825 ;;      Locals:         0       0       0       0       0
  4826 ;;      Temps:          0       0       0       0       0
  4827 ;;      Totals:         0       8       0       0       0
  4828 ;;Total ram usage:        8 bytes
  4829 ;; Hardware stack levels used: 1
  4830 ;; Hardware stack levels required when called: 2
  4831 ;; This function calls:
  4832 ;;		___fladd
  4833 ;; This function is called by:
  4834 ;;		_run_program
  4835 ;; This function uses a non-reentrant model
  4836 ;;
  4837                           
  4838     158F                     ___flsub:	
  4839                           ;psect for function ___flsub
  4840                           
  4841     158F                     l2458:	
  4842                           ;incstack = 0
  4843                           ; Regs used in ___flsub: [wreg+status,2+status,0+btemp+1+pclath+cstack]
  4844                           
  4845     158F  3080               	movlw	128
  4846     1590  1283               	bcf	3,5	;RP0=0, select bank0
  4847     1591  1303               	bcf	3,6	;RP1=0, select bank0
  4848     1592  06C3               	xorwf	___flsub@a+3,f
  4849     1593                     l2460:
  4850     1593  0847               	movf	___flsub@b+3,w
  4851     1594  00F5               	movwf	___fladd@b+3
  4852     1595  0846               	movf	___flsub@b+2,w
  4853     1596  00F4               	movwf	___fladd@b+2
  4854     1597  0845               	movf	___flsub@b+1,w
  4855     1598  00F3               	movwf	___fladd@b+1
  4856     1599  0844               	movf	___flsub@b,w
  4857     159A  00F2               	movwf	___fladd@b
  4858     159B  0843               	movf	___flsub@a+3,w
  4859     159C  00F9               	movwf	___fladd@a+3
  4860     159D  0842               	movf	___flsub@a+2,w
  4861     159E  00F8               	movwf	___fladd@a+2
  4862     159F  0841               	movf	___flsub@a+1,w
  4863     15A0  00F7               	movwf	___fladd@a+1
  4864     15A1  0840               	movf	___flsub@a,w
  4865     15A2  00F6               	movwf	___fladd@a
  4866     15A3  120A  158A  25B0  160A  118A  	fcall	___fladd
  4867     15A8  0875               	movf	?___fladd+3,w
  4868     15A9  1283               	bcf	3,5	;RP0=0, select bank0
  4869     15AA  1303               	bcf	3,6	;RP1=0, select bank0
  4870     15AB  00C3               	movwf	?___flsub+3
  4871     15AC  0874               	movf	?___fladd+2,w
  4872     15AD  00C2               	movwf	?___flsub+2
  4873     15AE  0873               	movf	?___fladd+1,w
  4874     15AF  00C1               	movwf	?___flsub+1
  4875     15B0  0872               	movf	?___fladd,w
  4876     15B1  00C0               	movwf	?___flsub
  4877     15B2                     l791:
  4878     15B2  0008               	return
  4879     15B3                     __end_of___flsub:
  4880                           
  4881                           	psect	text10
  4882     0DB0                     __ptext10:	
  4883 ;; *************** function ___fladd *****************
  4884 ;; Defined at:
  4885 ;;		line 10 in file "C:\Program Files\Microchip\xc8\v3.00\pic\sources\c99\common\sprcadd.c"
  4886 ;; Parameters:    Size  Location     Type
  4887 ;;  b               4    2[COMMON] long 
  4888 ;;  a               4    6[COMMON] long 
  4889 ;; Auto vars:     Size  Location     Type
  4890 ;;  grs             1   11[BANK0 ] unsigned char 
  4891 ;;  bexp            1   10[BANK0 ] unsigned char 
  4892 ;;  aexp            1    9[BANK0 ] unsigned char 
  4893 ;;  signs           1    8[BANK0 ] unsigned char 
  4894 ;; Return value:  Size  Location     Type
  4895 ;;                  4    2[COMMON] unsigned char 
  4896 ;; Registers used:
  4897 ;;		wreg, status,2, status,0, btemp+1
  4898 ;; Tracked objects:
  4899 ;;		On entry : 0/0
  4900 ;;		On exit  : 0/0
  4901 ;;		Unchanged: 0/0
  4902 ;; Data sizes:     COMMON   BANK0   BANK1   BANK3   BANK2
  4903 ;;      Params:         8       0       0       0       0
  4904 ;;      Locals:         0       4       0       0       0
  4905 ;;      Temps:          0       8       0       0       0
  4906 ;;      Totals:         8      12       0       0       0
  4907 ;;Total ram usage:       20 bytes
  4908 ;; Hardware stack levels used: 1
  4909 ;; Hardware stack levels required when called: 1
  4910 ;; This function calls:
  4911 ;;		Nothing
  4912 ;; This function is called by:
  4913 ;;		___flsub
  4914 ;; This function uses a non-reentrant model
  4915 ;;
  4916                           
  4917     0DB0                     ___fladd:	
  4918                           ;psect for function ___fladd
  4919                           
  4920     0DB0                     l2062:	
  4921                           ;incstack = 0
  4922                           ; Regs used in ___fladd: [wreg+status,2+status,0+btemp+1]
  4923                           
  4924     0DB0  0875               	movf	___fladd@b+3,w
  4925     0DB1  1283               	bcf	3,5	;RP0=0, select bank0
  4926     0DB2  1303               	bcf	3,6	;RP1=0, select bank0
  4927     0DB3  00A8               	movwf	___fladd@signs
  4928     0DB4                     l2064:
  4929     0DB4  3080               	movlw	128
  4930     0DB5  05A8               	andwf	___fladd@signs,f
  4931     0DB6                     l2066:
  4932     0DB6  0875               	movf	___fladd@b+3,w
  4933     0DB7  00A0               	movwf	??___fladd
  4934     0DB8  0720               	addwf	??___fladd,w
  4935     0DB9  00AA               	movwf	___fladd@bexp
  4936     0DBA                     l2068:
  4937     0DBA  1FF4               	btfss	___fladd@b+2,7
  4938     0DBB  2DBD               	goto	u1961
  4939     0DBC  2DBE               	goto	u1960
  4940     0DBD                     u1961:
  4941     0DBD  2DBF               	goto	l2072
  4942     0DBE                     u1960:
  4943     0DBE                     l2070:
  4944     0DBE  142A               	bsf	___fladd@bexp,0
  4945     0DBF                     l2072:
  4946     0DBF  082A               	movf	___fladd@bexp,w
  4947     0DC0  1903               	btfsc	3,2
  4948     0DC1  2DC3               	goto	u1971
  4949     0DC2  2DC4               	goto	u1970
  4950     0DC3                     u1971:
  4951     0DC3  2DD4               	goto	l2082
  4952     0DC4                     u1970:
  4953     0DC4                     l2074:
  4954     0DC4  0A2A               	incf	___fladd@bexp,w
  4955     0DC5  1D03               	btfss	3,2
  4956     0DC6  2DC8               	goto	u1981
  4957     0DC7  2DC9               	goto	u1980
  4958     0DC8                     u1981:
  4959     0DC8  2DD1               	goto	l2078
  4960     0DC9                     u1980:
  4961     0DC9                     l2076:
  4962     0DC9  3000               	movlw	0
  4963     0DCA  00F5               	movwf	___fladd@b+3
  4964     0DCB  3000               	movlw	0
  4965     0DCC  00F4               	movwf	___fladd@b+2
  4966     0DCD  3000               	movlw	0
  4967     0DCE  00F3               	movwf	___fladd@b+1
  4968     0DCF  3000               	movlw	0
  4969     0DD0  00F2               	movwf	___fladd@b
  4970     0DD1                     l2078:
  4971     0DD1  17F4               	bsf	___fladd@b+2,7
  4972     0DD2                     l2080:
  4973     0DD2  01F5               	clrf	___fladd@b+3
  4974     0DD3  2DDC               	goto	l740
  4975     0DD4                     l2082:
  4976     0DD4  3000               	movlw	0
  4977     0DD5  00F5               	movwf	___fladd@b+3
  4978     0DD6  3000               	movlw	0
  4979     0DD7  00F4               	movwf	___fladd@b+2
  4980     0DD8  3000               	movlw	0
  4981     0DD9  00F3               	movwf	___fladd@b+1
  4982     0DDA  3000               	movlw	0
  4983     0DDB  00F2               	movwf	___fladd@b
  4984     0DDC                     l740:
  4985     0DDC  0879               	movf	___fladd@a+3,w
  4986     0DDD  00A9               	movwf	___fladd@aexp
  4987     0DDE                     l2084:
  4988     0DDE  3080               	movlw	128
  4989     0DDF  05A9               	andwf	___fladd@aexp,f
  4990     0DE0                     l2086:
  4991     0DE0  0829               	movf	___fladd@aexp,w
  4992     0DE1  0628               	xorwf	___fladd@signs,w
  4993     0DE2  1903               	skipnz
  4994     0DE3  2DE5               	goto	u1991
  4995     0DE4  2DE6               	goto	u1990
  4996     0DE5                     u1991:
  4997     0DE5  2DE7               	goto	l2090
  4998     0DE6                     u1990:
  4999     0DE6                     l2088:
  5000     0DE6  1728               	bsf	___fladd@signs,6
  5001     0DE7                     l2090:
  5002     0DE7  0879               	movf	___fladd@a+3,w
  5003     0DE8  00A0               	movwf	??___fladd
  5004     0DE9  0720               	addwf	??___fladd,w
  5005     0DEA  00A9               	movwf	___fladd@aexp
  5006     0DEB                     l2092:
  5007     0DEB  1FF8               	btfss	___fladd@a+2,7
  5008     0DEC  2DEE               	goto	u2001
  5009     0DED  2DEF               	goto	u2000
  5010     0DEE                     u2001:
  5011     0DEE  2DF0               	goto	l2096
  5012     0DEF                     u2000:
  5013     0DEF                     l2094:
  5014     0DEF  1429               	bsf	___fladd@aexp,0
  5015     0DF0                     l2096:
  5016     0DF0  0829               	movf	___fladd@aexp,w
  5017     0DF1  1903               	btfsc	3,2
  5018     0DF2  2DF4               	goto	u2011
  5019     0DF3  2DF5               	goto	u2010
  5020     0DF4                     u2011:
  5021     0DF4  2E05               	goto	l2106
  5022     0DF5                     u2010:
  5023     0DF5                     l2098:
  5024     0DF5  0A29               	incf	___fladd@aexp,w
  5025     0DF6  1D03               	btfss	3,2
  5026     0DF7  2DF9               	goto	u2021
  5027     0DF8  2DFA               	goto	u2020
  5028     0DF9                     u2021:
  5029     0DF9  2E02               	goto	l2102
  5030     0DFA                     u2020:
  5031     0DFA                     l2100:
  5032     0DFA  3000               	movlw	0
  5033     0DFB  00F9               	movwf	___fladd@a+3
  5034     0DFC  3000               	movlw	0
  5035     0DFD  00F8               	movwf	___fladd@a+2
  5036     0DFE  3000               	movlw	0
  5037     0DFF  00F7               	movwf	___fladd@a+1
  5038     0E00  3000               	movlw	0
  5039     0E01  00F6               	movwf	___fladd@a
  5040     0E02                     l2102:
  5041     0E02  17F8               	bsf	___fladd@a+2,7
  5042     0E03                     l2104:
  5043     0E03  01F9               	clrf	___fladd@a+3
  5044     0E04  2E0D               	goto	l745
  5045     0E05                     l2106:
  5046     0E05  3000               	movlw	0
  5047     0E06  00F9               	movwf	___fladd@a+3
  5048     0E07  3000               	movlw	0
  5049     0E08  00F8               	movwf	___fladd@a+2
  5050     0E09  3000               	movlw	0
  5051     0E0A  00F7               	movwf	___fladd@a+1
  5052     0E0B  3000               	movlw	0
  5053     0E0C  00F6               	movwf	___fladd@a
  5054     0E0D                     l745:
  5055     0E0D  082A               	movf	___fladd@bexp,w
  5056     0E0E  0229               	subwf	___fladd@aexp,w
  5057     0E0F  1803               	skipnc
  5058     0E10  2E12               	goto	u2031
  5059     0E11  2E13               	goto	u2030
  5060     0E12                     u2031:
  5061     0E12  2E37               	goto	l2142
  5062     0E13                     u2030:
  5063     0E13                     l2108:
  5064     0E13  1F28               	btfss	___fladd@signs,6
  5065     0E14  2E16               	goto	u2041
  5066     0E15  2E17               	goto	u2040
  5067     0E16                     u2041:
  5068     0E16  2E19               	goto	l2112
  5069     0E17                     u2040:
  5070     0E17                     l2110:
  5071     0E17  3080               	movlw	128
  5072     0E18  06A8               	xorwf	___fladd@signs,f
  5073     0E19                     l2112:
  5074     0E19  082A               	movf	___fladd@bexp,w
  5075     0E1A  00AB               	movwf	___fladd@grs
  5076     0E1B                     l2114:
  5077     0E1B  0829               	movf	___fladd@aexp,w
  5078     0E1C  00AA               	movwf	___fladd@bexp
  5079     0E1D                     l2116:
  5080     0E1D  082B               	movf	___fladd@grs,w
  5081     0E1E  00A9               	movwf	___fladd@aexp
  5082     0E1F                     l2118:
  5083     0E1F  0872               	movf	___fladd@b,w
  5084     0E20  00AB               	movwf	___fladd@grs
  5085     0E21                     l2120:
  5086     0E21  0876               	movf	___fladd@a,w
  5087     0E22  00F2               	movwf	___fladd@b
  5088     0E23                     l2122:
  5089     0E23  082B               	movf	___fladd@grs,w
  5090     0E24  00F6               	movwf	___fladd@a
  5091     0E25                     l2124:
  5092     0E25  0873               	movf	___fladd@b+1,w
  5093     0E26  00AB               	movwf	___fladd@grs
  5094     0E27                     l2126:
  5095     0E27  0877               	movf	___fladd@a+1,w
  5096     0E28  00F3               	movwf	___fladd@b+1
  5097     0E29                     l2128:
  5098     0E29  082B               	movf	___fladd@grs,w
  5099     0E2A  00F7               	movwf	___fladd@a+1
  5100     0E2B                     l2130:
  5101     0E2B  0874               	movf	___fladd@b+2,w
  5102     0E2C  00AB               	movwf	___fladd@grs
  5103     0E2D                     l2132:
  5104     0E2D  0878               	movf	___fladd@a+2,w
  5105     0E2E  00F4               	movwf	___fladd@b+2
  5106     0E2F                     l2134:
  5107     0E2F  082B               	movf	___fladd@grs,w
  5108     0E30  00F8               	movwf	___fladd@a+2
  5109     0E31                     l2136:
  5110     0E31  0875               	movf	___fladd@b+3,w
  5111     0E32  00AB               	movwf	___fladd@grs
  5112     0E33                     l2138:
  5113     0E33  0879               	movf	___fladd@a+3,w
  5114     0E34  00F5               	movwf	___fladd@b+3
  5115     0E35                     l2140:
  5116     0E35  082B               	movf	___fladd@grs,w
  5117     0E36  00F9               	movwf	___fladd@a+3
  5118     0E37                     l2142:
  5119     0E37  01AB               	clrf	___fladd@grs
  5120     0E38                     l2144:
  5121     0E38  0829               	movf	___fladd@aexp,w
  5122     0E39  00A0               	movwf	??___fladd
  5123     0E3A  01A1               	clrf	??___fladd+1
  5124     0E3B  0821               	movf	??___fladd+1,w
  5125     0E3C  00A3               	movwf	??___fladd+3
  5126     0E3D  082A               	movf	___fladd@bexp,w
  5127     0E3E  0220               	subwf	??___fladd,w
  5128     0E3F  00A2               	movwf	??___fladd+2
  5129     0E40  1C03               	skipc
  5130     0E41  03A3               	decf	??___fladd+3,f
  5131     0E42  0823               	movf	??___fladd+3,w
  5132     0E43  3A80               	xorlw	128
  5133     0E44  00FF               	movwf	btemp+1
  5134     0E45  3080               	movlw	128
  5135     0E46  027F               	subwf	btemp+1,w
  5136     0E47  1D03               	skipz
  5137     0E48  2E4B               	goto	u2055
  5138     0E49  301A               	movlw	26
  5139     0E4A  0222               	subwf	??___fladd+2,w
  5140     0E4B                     u2055:
  5141     0E4B  1C03               	skipc
  5142     0E4C  2E4E               	goto	u2051
  5143     0E4D  2E4F               	goto	u2050
  5144     0E4E                     u2051:
  5145     0E4E  2E84               	goto	l2160
  5146     0E4F                     u2050:
  5147     0E4F                     l2146:
  5148     0E4F  0875               	movf	___fladd@b+3,w
  5149     0E50  0474               	iorwf	___fladd@b+2,w
  5150     0E51  0473               	iorwf	___fladd@b+1,w
  5151     0E52  0472               	iorwf	___fladd@b,w
  5152     0E53  1D03               	skipz
  5153     0E54  2E56               	goto	u2061
  5154     0E55  2E58               	goto	u2060
  5155     0E56                     u2061:
  5156     0E56  3001               	movlw	1
  5157     0E57  2E59               	goto	u2070
  5158     0E58                     u2060:
  5159     0E58  3000               	movlw	0
  5160     0E59                     u2070:
  5161     0E59  1283               	bcf	3,5	;RP0=0, select bank0
  5162     0E5A  1303               	bcf	3,6	;RP1=0, select bank0
  5163     0E5B  00AB               	movwf	___fladd@grs
  5164     0E5C  3000               	movlw	0
  5165     0E5D  00F5               	movwf	___fladd@b+3
  5166     0E5E  3000               	movlw	0
  5167     0E5F  00F4               	movwf	___fladd@b+2
  5168     0E60  3000               	movlw	0
  5169     0E61  00F3               	movwf	___fladd@b+1
  5170     0E62  3000               	movlw	0
  5171     0E63  00F2               	movwf	___fladd@b
  5172     0E64  0829               	movf	___fladd@aexp,w
  5173     0E65  00AA               	movwf	___fladd@bexp
  5174     0E66  2E8C               	goto	l749
  5175     0E67                     l751:
  5176     0E67  1C2B               	btfss	___fladd@grs,0
  5177     0E68  2E6A               	goto	u2081
  5178     0E69  2E6B               	goto	u2080
  5179     0E6A                     u2081:
  5180     0E6A  2E72               	goto	l2150
  5181     0E6B                     u2080:
  5182     0E6B                     l2148:
  5183     0E6B  082B               	movf	___fladd@grs,w
  5184     0E6C  00A0               	movwf	??___fladd
  5185     0E6D  1003               	clrc
  5186     0E6E  0C20               	rrf	??___fladd,w
  5187     0E6F  3801               	iorlw	1
  5188     0E70  00AB               	movwf	___fladd@grs
  5189     0E71  2E74               	goto	l2152
  5190     0E72                     l2150:
  5191     0E72  1003               	clrc
  5192     0E73  0CAB               	rrf	___fladd@grs,f
  5193     0E74                     l2152:
  5194     0E74  1C72               	btfss	___fladd@b,0
  5195     0E75  2E77               	goto	u2091
  5196     0E76  2E78               	goto	u2090
  5197     0E77                     u2091:
  5198     0E77  2E79               	goto	l2156
  5199     0E78                     u2090:
  5200     0E78                     l2154:
  5201     0E78  17AB               	bsf	___fladd@grs,7
  5202     0E79                     l2156:
  5203     0E79  3001               	movlw	1
  5204     0E7A  00A0               	movwf	??___fladd
  5205     0E7B                     u2105:
  5206     0E7B  0D75               	rlf	___fladd@b+3,w
  5207     0E7C  0CF5               	rrf	___fladd@b+3,f
  5208     0E7D  0CF4               	rrf	___fladd@b+2,f
  5209     0E7E  0CF3               	rrf	___fladd@b+1,f
  5210     0E7F  0CF2               	rrf	___fladd@b,f
  5211     0E80  0BA0               	decfsz	??___fladd& (0+127),f
  5212     0E81  2E7B               	goto	u2105
  5213     0E82                     l2158:
  5214     0E82  3001               	movlw	1
  5215     0E83  07AA               	addwf	___fladd@bexp,f
  5216     0E84                     l2160:
  5217     0E84  1283               	bcf	3,5	;RP0=0, select bank0
  5218     0E85  1303               	bcf	3,6	;RP1=0, select bank0
  5219     0E86  0829               	movf	___fladd@aexp,w
  5220     0E87  022A               	subwf	___fladd@bexp,w
  5221     0E88  1C03               	skipc
  5222     0E89  2E8B               	goto	u2111
  5223     0E8A  2E8C               	goto	u2110
  5224     0E8B                     u2111:
  5225     0E8B  2E67               	goto	l751
  5226     0E8C                     u2110:
  5227     0E8C                     l749:
  5228     0E8C  1B28               	btfsc	___fladd@signs,6
  5229     0E8D  2E8F               	goto	u2121
  5230     0E8E  2E90               	goto	u2120
  5231     0E8F                     u2121:
  5232     0E8F  2ED7               	goto	l2186
  5233     0E90                     u2120:
  5234     0E90                     l2162:
  5235     0E90  082A               	movf	___fladd@bexp,w
  5236     0E91  1D03               	btfss	3,2
  5237     0E92  2E94               	goto	u2131
  5238     0E93  2E95               	goto	u2130
  5239     0E94                     u2131:
  5240     0E94  2E9E               	goto	l2168
  5241     0E95                     u2130:
  5242     0E95                     l2164:
  5243     0E95  3000               	movlw	0
  5244     0E96  00F5               	movwf	?___fladd+3
  5245     0E97  3000               	movlw	0
  5246     0E98  00F4               	movwf	?___fladd+2
  5247     0E99  3000               	movlw	0
  5248     0E9A  00F3               	movwf	?___fladd+1
  5249     0E9B  3000               	movlw	0
  5250     0E9C  00F2               	movwf	?___fladd
  5251     0E9D  2FFF               	goto	l758
  5252     0E9E                     l2168:
  5253     0E9E  0876               	movf	___fladd@a,w
  5254     0E9F  07F2               	addwf	___fladd@b,f
  5255     0EA0  0877               	movf	___fladd@a+1,w
  5256     0EA1  1103               	clrz
  5257     0EA2  1803               	skipnc
  5258     0EA3  3E01               	addlw	1
  5259     0EA4  1903               	skipnz
  5260     0EA5  2EA7               	goto	u2141
  5261     0EA6  07F3               	addwf	___fladd@b+1,f
  5262     0EA7                     u2141:
  5263     0EA7  0878               	movf	___fladd@a+2,w
  5264     0EA8  1103               	clrz
  5265     0EA9  1803               	skipnc
  5266     0EAA  3E01               	addlw	1
  5267     0EAB  1903               	skipnz
  5268     0EAC  2EAE               	goto	u2142
  5269     0EAD  07F4               	addwf	___fladd@b+2,f
  5270     0EAE                     u2142:
  5271     0EAE  0879               	movf	___fladd@a+3,w
  5272     0EAF  1103               	clrz
  5273     0EB0  1803               	skipnc
  5274     0EB1  3E01               	addlw	1
  5275     0EB2  1903               	skipnz
  5276     0EB3  2EB5               	goto	u2143
  5277     0EB4  07F5               	addwf	___fladd@b+3,f
  5278     0EB5                     u2143:
  5279     0EB5                     l2170:
  5280     0EB5  1C75               	btfss	___fladd@b+3,0
  5281     0EB6  2EB8               	goto	u2151
  5282     0EB7  2EB9               	goto	u2150
  5283     0EB8                     u2151:
  5284     0EB8  2F8B               	goto	l2222
  5285     0EB9                     u2150:
  5286     0EB9                     l2172:
  5287     0EB9  1C2B               	btfss	___fladd@grs,0
  5288     0EBA  2EBC               	goto	u2161
  5289     0EBB  2EBD               	goto	u2160
  5290     0EBC                     u2161:
  5291     0EBC  2EC4               	goto	l2176
  5292     0EBD                     u2160:
  5293     0EBD                     l2174:
  5294     0EBD  082B               	movf	___fladd@grs,w
  5295     0EBE  00A0               	movwf	??___fladd
  5296     0EBF  1003               	clrc
  5297     0EC0  0C20               	rrf	??___fladd,w
  5298     0EC1  3801               	iorlw	1
  5299     0EC2  00AB               	movwf	___fladd@grs
  5300     0EC3  2EC6               	goto	l2178
  5301     0EC4                     l2176:
  5302     0EC4  1003               	clrc
  5303     0EC5  0CAB               	rrf	___fladd@grs,f
  5304     0EC6                     l2178:
  5305     0EC6  1C72               	btfss	___fladd@b,0
  5306     0EC7  2EC9               	goto	u2171
  5307     0EC8  2ECA               	goto	u2170
  5308     0EC9                     u2171:
  5309     0EC9  2ECB               	goto	l2182
  5310     0ECA                     u2170:
  5311     0ECA                     l2180:
  5312     0ECA  17AB               	bsf	___fladd@grs,7
  5313     0ECB                     l2182:
  5314     0ECB  3001               	movlw	1
  5315     0ECC  00A0               	movwf	??___fladd
  5316     0ECD                     u2185:
  5317     0ECD  0D75               	rlf	___fladd@b+3,w
  5318     0ECE  0CF5               	rrf	___fladd@b+3,f
  5319     0ECF  0CF4               	rrf	___fladd@b+2,f
  5320     0ED0  0CF3               	rrf	___fladd@b+1,f
  5321     0ED1  0CF2               	rrf	___fladd@b,f
  5322     0ED2  0BA0               	decfsz	??___fladd& (0+127),f
  5323     0ED3  2ECD               	goto	u2185
  5324     0ED4                     l2184:
  5325     0ED4  3001               	movlw	1
  5326     0ED5  07AA               	addwf	___fladd@bexp,f
  5327     0ED6  2F8B               	goto	l2222
  5328     0ED7                     l2186:
  5329     0ED7  0875               	movf	___fladd@b+3,w
  5330     0ED8  3A80               	xorlw	128
  5331     0ED9  00FF               	movwf	btemp+1
  5332     0EDA  0879               	movf	___fladd@a+3,w
  5333     0EDB  3A80               	xorlw	128
  5334     0EDC  027F               	subwf	btemp+1,w
  5335     0EDD  1D03               	skipz
  5336     0EDE  2EE9               	goto	u2193
  5337     0EDF  0878               	movf	___fladd@a+2,w
  5338     0EE0  0274               	subwf	___fladd@b+2,w
  5339     0EE1  1D03               	skipz
  5340     0EE2  2EE9               	goto	u2193
  5341     0EE3  0877               	movf	___fladd@a+1,w
  5342     0EE4  0273               	subwf	___fladd@b+1,w
  5343     0EE5  1D03               	skipz
  5344     0EE6  2EE9               	goto	u2193
  5345     0EE7  0876               	movf	___fladd@a,w
  5346     0EE8  0272               	subwf	___fladd@b,w
  5347     0EE9                     u2193:
  5348     0EE9  1803               	skipnc
  5349     0EEA  2EEC               	goto	u2191
  5350     0EEB  2EED               	goto	u2190
  5351     0EEC                     u2191:
  5352     0EEC  2F44               	goto	l2198
  5353     0EED                     u2190:
  5354     0EED                     l2188:
  5355     0EED  30FF               	movlw	255
  5356     0EEE  00A0               	movwf	??___fladd
  5357     0EEF  30FF               	movlw	255
  5358     0EF0  00A1               	movwf	??___fladd+1
  5359     0EF1  30FF               	movlw	255
  5360     0EF2  00A2               	movwf	??___fladd+2
  5361     0EF3  30FF               	movlw	255
  5362     0EF4  00A3               	movwf	??___fladd+3
  5363     0EF5  0876               	movf	___fladd@a,w
  5364     0EF6  00A4               	movwf	??___fladd+4
  5365     0EF7  0877               	movf	___fladd@a+1,w
  5366     0EF8  00A5               	movwf	??___fladd+5
  5367     0EF9  0878               	movf	___fladd@a+2,w
  5368     0EFA  00A6               	movwf	??___fladd+6
  5369     0EFB  0879               	movf	___fladd@a+3,w
  5370     0EFC  00A7               	movwf	??___fladd+7
  5371     0EFD  0872               	movf	___fladd@b,w
  5372     0EFE  02A4               	subwf	??___fladd+4,f
  5373     0EFF  0873               	movf	___fladd@b+1,w
  5374     0F00  1C03               	skipc
  5375     0F01  0F73               	incfsz	___fladd@b+1,w
  5376     0F02  2F04               	goto	u2201
  5377     0F03  2F05               	goto	u2202
  5378     0F04                     u2201:
  5379     0F04  02A5               	subwf	??___fladd+5,f
  5380     0F05                     u2202:
  5381     0F05  0874               	movf	___fladd@b+2,w
  5382     0F06  1C03               	skipc
  5383     0F07  0F74               	incfsz	___fladd@b+2,w
  5384     0F08  2F0A               	goto	u2203
  5385     0F09  2F0B               	goto	u2204
  5386     0F0A                     u2203:
  5387     0F0A  02A6               	subwf	??___fladd+6,f
  5388     0F0B                     u2204:
  5389     0F0B  0875               	movf	___fladd@b+3,w
  5390     0F0C  1C03               	skipc
  5391     0F0D  0F75               	incfsz	___fladd@b+3,w
  5392     0F0E  2F10               	goto	u2205
  5393     0F0F  2F11               	goto	u2206
  5394     0F10                     u2205:
  5395     0F10  02A7               	subwf	??___fladd+7,f
  5396     0F11                     u2206:
  5397     0F11  0824               	movf	??___fladd+4,w
  5398     0F12  07A0               	addwf	??___fladd,f
  5399     0F13  0825               	movf	??___fladd+5,w
  5400     0F14  1803               	skipnc
  5401     0F15  0F25               	incfsz	??___fladd+5,w
  5402     0F16  2F18               	goto	u2210
  5403     0F17  2F19               	goto	u2211
  5404     0F18                     u2210:
  5405     0F18  07A1               	addwf	??___fladd+1,f
  5406     0F19                     u2211:
  5407     0F19  0826               	movf	??___fladd+6,w
  5408     0F1A  1803               	skipnc
  5409     0F1B  0F26               	incfsz	??___fladd+6,w
  5410     0F1C  2F1E               	goto	u2212
  5411     0F1D  2F1F               	goto	u2213
  5412     0F1E                     u2212:
  5413     0F1E  07A2               	addwf	??___fladd+2,f
  5414     0F1F                     u2213:
  5415     0F1F  0827               	movf	??___fladd+7,w
  5416     0F20  1803               	skipnc
  5417     0F21  0A27               	incf	??___fladd+7,w
  5418     0F22  07A3               	addwf	??___fladd+3,f
  5419     0F23  0823               	movf	??___fladd+3,w
  5420     0F24  00F5               	movwf	___fladd@b+3
  5421     0F25  0822               	movf	??___fladd+2,w
  5422     0F26  00F4               	movwf	___fladd@b+2
  5423     0F27  0821               	movf	??___fladd+1,w
  5424     0F28  00F3               	movwf	___fladd@b+1
  5425     0F29  0820               	movf	??___fladd,w
  5426     0F2A  00F2               	movwf	___fladd@b
  5427     0F2B                     l2190:
  5428     0F2B  3080               	movlw	128
  5429     0F2C  06A8               	xorwf	___fladd@signs,f
  5430     0F2D                     l2192:
  5431     0F2D  032B               	decf	___fladd@grs,w
  5432     0F2E  3AFF               	xorlw	255
  5433     0F2F  00AB               	movwf	___fladd@grs
  5434     0F30                     l2194:
  5435     0F30  082B               	movf	___fladd@grs,w
  5436     0F31  1D03               	btfss	3,2
  5437     0F32  2F34               	goto	u2221
  5438     0F33  2F35               	goto	u2220
  5439     0F34                     u2221:
  5440     0F34  2F52               	goto	l766
  5441     0F35                     u2220:
  5442     0F35                     l2196:
  5443     0F35  3001               	movlw	1
  5444     0F36  07F2               	addwf	___fladd@b,f
  5445     0F37  3000               	movlw	0
  5446     0F38  1803               	skipnc
  5447     0F39  3001               	movlw	1
  5448     0F3A  07F3               	addwf	___fladd@b+1,f
  5449     0F3B  3000               	movlw	0
  5450     0F3C  1803               	skipnc
  5451     0F3D  3001               	movlw	1
  5452     0F3E  07F4               	addwf	___fladd@b+2,f
  5453     0F3F  3000               	movlw	0
  5454     0F40  1803               	skipnc
  5455     0F41  3001               	movlw	1
  5456     0F42  07F5               	addwf	___fladd@b+3,f
  5457     0F43  2F52               	goto	l766
  5458     0F44                     l2198:
  5459     0F44  0876               	movf	___fladd@a,w
  5460     0F45  02F2               	subwf	___fladd@b,f
  5461     0F46  0877               	movf	___fladd@a+1,w
  5462     0F47  1C03               	skipc
  5463     0F48  0F77               	incfsz	___fladd@a+1,w
  5464     0F49  02F3               	subwf	___fladd@b+1,f
  5465     0F4A  0878               	movf	___fladd@a+2,w
  5466     0F4B  1C03               	skipc
  5467     0F4C  0F78               	incfsz	___fladd@a+2,w
  5468     0F4D  02F4               	subwf	___fladd@b+2,f
  5469     0F4E  0879               	movf	___fladd@a+3,w
  5470     0F4F  1C03               	skipc
  5471     0F50  0F79               	incfsz	___fladd@a+3,w
  5472     0F51  02F5               	subwf	___fladd@b+3,f
  5473     0F52                     l766:
  5474     0F52  0875               	movf	___fladd@b+3,w
  5475     0F53  0474               	iorwf	___fladd@b+2,w
  5476     0F54  0473               	iorwf	___fladd@b+1,w
  5477     0F55  0472               	iorwf	___fladd@b,w
  5478     0F56  1D03               	skipz
  5479     0F57  2F59               	goto	u2231
  5480     0F58  2F5A               	goto	u2230
  5481     0F59                     u2231:
  5482     0F59  2F87               	goto	l2220
  5483     0F5A                     u2230:
  5484     0F5A                     l2200:
  5485     0F5A  082B               	movf	___fladd@grs,w
  5486     0F5B  1D03               	btfss	3,2
  5487     0F5C  2F5E               	goto	u2241
  5488     0F5D  2F5F               	goto	u2240
  5489     0F5E                     u2241:
  5490     0F5E  2F87               	goto	l2220
  5491     0F5F                     u2240:
  5492     0F5F                     l2202:
  5493     0F5F  3000               	movlw	0
  5494     0F60  00F5               	movwf	?___fladd+3
  5495     0F61  3000               	movlw	0
  5496     0F62  00F4               	movwf	?___fladd+2
  5497     0F63  3000               	movlw	0
  5498     0F64  00F3               	movwf	?___fladd+1
  5499     0F65  3000               	movlw	0
  5500     0F66  00F2               	movwf	?___fladd
  5501     0F67  2FFF               	goto	l758
  5502     0F68                     l2206:
  5503     0F68  3001               	movlw	1
  5504     0F69  00A0               	movwf	??___fladd
  5505     0F6A                     u2255:
  5506     0F6A  1003               	clrc
  5507     0F6B  0DF2               	rlf	___fladd@b,f
  5508     0F6C  0DF3               	rlf	___fladd@b+1,f
  5509     0F6D  0DF4               	rlf	___fladd@b+2,f
  5510     0F6E  0DF5               	rlf	___fladd@b+3,f
  5511     0F6F  0BA0               	decfsz	??___fladd,f
  5512     0F70  2F6A               	goto	u2255
  5513     0F71                     l2208:
  5514     0F71  1FAB               	btfss	___fladd@grs,7
  5515     0F72  2F74               	goto	u2261
  5516     0F73  2F75               	goto	u2260
  5517     0F74                     u2261:
  5518     0F74  2F76               	goto	l770
  5519     0F75                     u2260:
  5520     0F75                     l2210:
  5521     0F75  1472               	bsf	___fladd@b,0
  5522     0F76                     l770:
  5523     0F76  1C2B               	btfss	___fladd@grs,0
  5524     0F77  2F79               	goto	u2271
  5525     0F78  2F7A               	goto	u2270
  5526     0F79                     u2271:
  5527     0F79  2F7E               	goto	l2214
  5528     0F7A                     u2270:
  5529     0F7A                     l2212:
  5530     0F7A  1403               	setc
  5531     0F7B  0D2B               	rlf	___fladd@grs,w
  5532     0F7C  00AB               	movwf	___fladd@grs
  5533     0F7D  2F80               	goto	l2216
  5534     0F7E                     l2214:
  5535     0F7E  1003               	clrc
  5536     0F7F  0DAB               	rlf	___fladd@grs,f
  5537     0F80                     l2216:
  5538     0F80  082A               	movf	___fladd@bexp,w
  5539     0F81  1903               	btfsc	3,2
  5540     0F82  2F84               	goto	u2281
  5541     0F83  2F85               	goto	u2280
  5542     0F84                     u2281:
  5543     0F84  2F87               	goto	l2220
  5544     0F85                     u2280:
  5545     0F85                     l2218:
  5546     0F85  3001               	movlw	1
  5547     0F86  02AA               	subwf	___fladd@bexp,f
  5548     0F87                     l2220:
  5549     0F87  1FF4               	btfss	___fladd@b+2,7
  5550     0F88  2F8A               	goto	u2291
  5551     0F89  2F8B               	goto	u2290
  5552     0F8A                     u2291:
  5553     0F8A  2F68               	goto	l2206
  5554     0F8B                     u2290:
  5555     0F8B                     l2222:
  5556     0F8B  01A9               	clrf	___fladd@aexp
  5557     0F8C                     l2224:
  5558     0F8C  1FAB               	btfss	___fladd@grs,7
  5559     0F8D  2F8F               	goto	u2301
  5560     0F8E  2F90               	goto	u2300
  5561     0F8F                     u2301:
  5562     0F8F  2F9E               	goto	l2232
  5563     0F90                     u2300:
  5564     0F90                     l2226:
  5565     0F90  082B               	movf	___fladd@grs,w
  5566     0F91  397F               	andlw	127
  5567     0F92  1903               	btfsc	3,2
  5568     0F93  2F95               	goto	u2311
  5569     0F94  2F96               	goto	u2310
  5570     0F95                     u2311:
  5571     0F95  2F99               	goto	l776
  5572     0F96                     u2310:
  5573     0F96                     l2228:
  5574     0F96  3001               	movlw	1
  5575     0F97  00A9               	movwf	___fladd@aexp
  5576     0F98  2F9E               	goto	l2232
  5577     0F99                     l776:
  5578     0F99  1C72               	btfss	___fladd@b,0
  5579     0F9A  2F9C               	goto	u2321
  5580     0F9B  2F9D               	goto	u2320
  5581     0F9C                     u2321:
  5582     0F9C  2F9E               	goto	l2232
  5583     0F9D                     u2320:
  5584     0F9D  2F96               	goto	l2228
  5585     0F9E                     l2232:
  5586     0F9E  0829               	movf	___fladd@aexp,w
  5587     0F9F  1903               	btfsc	3,2
  5588     0FA0  2FA2               	goto	u2331
  5589     0FA1  2FA3               	goto	u2330
  5590     0FA2                     u2331:
  5591     0FA2  2FD5               	goto	l779
  5592     0FA3                     u2330:
  5593     0FA3                     l2234:
  5594     0FA3  3001               	movlw	1
  5595     0FA4  07F2               	addwf	___fladd@b,f
  5596     0FA5  3000               	movlw	0
  5597     0FA6  1803               	skipnc
  5598     0FA7  3001               	movlw	1
  5599     0FA8  07F3               	addwf	___fladd@b+1,f
  5600     0FA9  3000               	movlw	0
  5601     0FAA  1803               	skipnc
  5602     0FAB  3001               	movlw	1
  5603     0FAC  07F4               	addwf	___fladd@b+2,f
  5604     0FAD  3000               	movlw	0
  5605     0FAE  1803               	skipnc
  5606     0FAF  3001               	movlw	1
  5607     0FB0  07F5               	addwf	___fladd@b+3,f
  5608     0FB1                     l2236:
  5609     0FB1  1C75               	btfss	___fladd@b+3,0
  5610     0FB2  2FB4               	goto	u2341
  5611     0FB3  2FB5               	goto	u2340
  5612     0FB4                     u2341:
  5613     0FB4  2FD5               	goto	l779
  5614     0FB5                     u2340:
  5615     0FB5                     l2238:
  5616     0FB5  0872               	movf	___fladd@b,w
  5617     0FB6  00A0               	movwf	??___fladd
  5618     0FB7  0873               	movf	___fladd@b+1,w
  5619     0FB8  00A1               	movwf	??___fladd+1
  5620     0FB9  0874               	movf	___fladd@b+2,w
  5621     0FBA  00A2               	movwf	??___fladd+2
  5622     0FBB  0875               	movf	___fladd@b+3,w
  5623     0FBC  00A3               	movwf	??___fladd+3
  5624     0FBD  3001               	movlw	1
  5625     0FBE  00A4               	movwf	??___fladd+4
  5626     0FBF                     u2355:
  5627     0FBF  0D23               	rlf	??___fladd+3,w
  5628     0FC0  0CA3               	rrf	??___fladd+3,f
  5629     0FC1  0CA2               	rrf	??___fladd+2,f
  5630     0FC2  0CA1               	rrf	??___fladd+1,f
  5631     0FC3  0CA0               	rrf	??___fladd,f
  5632     0FC4                     u2350:
  5633     0FC4  0BA4               	decfsz	??___fladd+4,f
  5634     0FC5  2FBF               	goto	u2355
  5635     0FC6  0823               	movf	??___fladd+3,w
  5636     0FC7  00F5               	movwf	___fladd@b+3
  5637     0FC8  0822               	movf	??___fladd+2,w
  5638     0FC9  00F4               	movwf	___fladd@b+2
  5639     0FCA  0821               	movf	??___fladd+1,w
  5640     0FCB  00F3               	movwf	___fladd@b+1
  5641     0FCC  0820               	movf	??___fladd,w
  5642     0FCD  00F2               	movwf	___fladd@b
  5643     0FCE  0A2A               	incf	___fladd@bexp,w
  5644     0FCF  1903               	btfsc	3,2
  5645     0FD0  2FD2               	goto	u2361
  5646     0FD1  2FD3               	goto	u2360
  5647     0FD2                     u2361:
  5648     0FD2  2FD5               	goto	l779
  5649     0FD3                     u2360:
  5650     0FD3                     l2240:
  5651     0FD3  3001               	movlw	1
  5652     0FD4  07AA               	addwf	___fladd@bexp,f
  5653     0FD5                     l779:
  5654     0FD5  0A2A               	incf	___fladd@bexp,w
  5655     0FD6  1903               	btfsc	3,2
  5656     0FD7  2FD9               	goto	u2371
  5657     0FD8  2FDA               	goto	u2370
  5658     0FD9                     u2371:
  5659     0FD9  2FDF               	goto	l2244
  5660     0FDA                     u2370:
  5661     0FDA                     l2242:
  5662     0FDA  082A               	movf	___fladd@bexp,w
  5663     0FDB  1D03               	btfss	3,2
  5664     0FDC  2FDE               	goto	u2381
  5665     0FDD  2FDF               	goto	u2380
  5666     0FDE                     u2381:
  5667     0FDE  2FED               	goto	l2250
  5668     0FDF                     u2380:
  5669     0FDF                     l2244:
  5670     0FDF  3000               	movlw	0
  5671     0FE0  00F5               	movwf	___fladd@b+3
  5672     0FE1  3000               	movlw	0
  5673     0FE2  00F4               	movwf	___fladd@b+2
  5674     0FE3  3000               	movlw	0
  5675     0FE4  00F3               	movwf	___fladd@b+1
  5676     0FE5  3000               	movlw	0
  5677     0FE6  00F2               	movwf	___fladd@b
  5678     0FE7                     l2246:
  5679     0FE7  082A               	movf	___fladd@bexp,w
  5680     0FE8  1D03               	btfss	3,2
  5681     0FE9  2FEB               	goto	u2391
  5682     0FEA  2FEC               	goto	u2390
  5683     0FEB                     u2391:
  5684     0FEB  2FED               	goto	l2250
  5685     0FEC                     u2390:
  5686     0FEC                     l2248:
  5687     0FEC  01A8               	clrf	___fladd@signs
  5688     0FED                     l2250:
  5689     0FED  1C2A               	btfss	___fladd@bexp,0
  5690     0FEE  2FF0               	goto	u2401
  5691     0FEF  2FF1               	goto	u2400
  5692     0FF0                     u2401:
  5693     0FF0  2FF3               	goto	l2254
  5694     0FF1                     u2400:
  5695     0FF1                     l2252:
  5696     0FF1  17F4               	bsf	___fladd@b+2,7
  5697     0FF2  2FF5               	goto	l787
  5698     0FF3                     l2254:
  5699     0FF3  307F               	movlw	127
  5700     0FF4  05F4               	andwf	___fladd@b+2,f
  5701     0FF5                     l787:
  5702     0FF5  082A               	movf	___fladd@bexp,w
  5703     0FF6  00A0               	movwf	??___fladd
  5704     0FF7  1003               	clrc
  5705     0FF8  0C20               	rrf	??___fladd,w
  5706     0FF9  00F5               	movwf	___fladd@b+3
  5707     0FFA                     l2256:
  5708     0FFA  1FA8               	btfss	___fladd@signs,7
  5709     0FFB  2FFD               	goto	u2411
  5710     0FFC  2FFE               	goto	u2410
  5711     0FFD                     u2411:
  5712     0FFD  2FFF               	goto	l788
  5713     0FFE                     u2410:
  5714     0FFE                     l2258:
  5715     0FFE  17F5               	bsf	___fladd@b+3,7
  5716     0FFF                     l788:
  5717     0FFF                     l758:
  5718     0FFF  0008               	return
  5719     1000                     __end_of___fladd:
  5720                           
  5721                           	psect	text11
  5722     0404                     __ptext11:	
  5723 ;; *************** function ___flmul *****************
  5724 ;; Defined at:
  5725 ;;		line 8 in file "C:\Program Files\Microchip\xc8\v3.00\pic\sources\c99\common\sprcmul.c"
  5726 ;; Parameters:    Size  Location     Type
  5727 ;;  b               4    6[BANK0 ] unsigned char 
  5728 ;;  a               4   10[BANK0 ] unsigned char 
  5729 ;; Auto vars:     Size  Location     Type
  5730 ;;  prod            4   26[BANK0 ] struct .
  5731 ;;  grs             4   21[BANK0 ] unsigned long 
  5732 ;;  temp            2   30[BANK0 ] struct .
  5733 ;;  bexp            1   25[BANK0 ] unsigned char 
  5734 ;;  aexp            1   20[BANK0 ] unsigned char 
  5735 ;;  sign            1   19[BANK0 ] unsigned char 
  5736 ;; Return value:  Size  Location     Type
  5737 ;;                  4    6[BANK0 ] unsigned char 
  5738 ;; Registers used:
  5739 ;;		wreg, status,2, status,0, btemp+1, pclath, cstack
  5740 ;; Tracked objects:
  5741 ;;		On entry : 0/0
  5742 ;;		On exit  : 0/0
  5743 ;;		Unchanged: 0/0
  5744 ;; Data sizes:     COMMON   BANK0   BANK1   BANK3   BANK2
  5745 ;;      Params:         0       8       0       0       0
  5746 ;;      Locals:         0      13       0       0       0
  5747 ;;      Temps:          0       5       0       0       0
  5748 ;;      Totals:         0      26       0       0       0
  5749 ;;Total ram usage:       26 bytes
  5750 ;; Hardware stack levels used: 1
  5751 ;; Hardware stack levels required when called: 2
  5752 ;; This function calls:
  5753 ;;		__Umul8_16
  5754 ;; This function is called by:
  5755 ;;		_run_program
  5756 ;; This function uses a non-reentrant model
  5757 ;;
  5758                           
  5759     0404                     ___flmul:	
  5760                           ;psect for function ___flmul
  5761                           
  5762     0404                     l3262:	
  5763                           ;incstack = 0
  5764                           ; Regs used in ___flmul: [wreg+status,2+status,0+btemp+1+pclath+cstack]
  5765                           
  5766     0404  1283               	bcf	3,5	;RP0=0, select bank0
  5767     0405  1303               	bcf	3,6	;RP1=0, select bank0
  5768     0406  0829               	movf	___flmul@b+3,w
  5769     0407  00B3               	movwf	___flmul@sign
  5770     0408                     l3264:
  5771     0408  3080               	movlw	128
  5772     0409  05B3               	andwf	___flmul@sign,f
  5773     040A                     l3266:
  5774     040A  0829               	movf	___flmul@b+3,w
  5775     040B  00AE               	movwf	??___flmul
  5776     040C  072E               	addwf	??___flmul,w
  5777     040D  00B9               	movwf	___flmul@bexp
  5778     040E                     l3268:
  5779     040E  1FA8               	btfss	___flmul@b+2,7
  5780     040F  2C11               	goto	u4021
  5781     0410  2C12               	goto	u4020
  5782     0411                     u4021:
  5783     0411  2C13               	goto	l3272
  5784     0412                     u4020:
  5785     0412                     l3270:
  5786     0412  1439               	bsf	___flmul@bexp,0
  5787     0413                     l3272:
  5788     0413  0839               	movf	___flmul@bexp,w
  5789     0414  1903               	btfsc	3,2
  5790     0415  2C17               	goto	u4031
  5791     0416  2C18               	goto	u4030
  5792     0417                     u4031:
  5793     0417  2C27               	goto	l3280
  5794     0418                     u4030:
  5795     0418                     l3274:
  5796     0418  0A39               	incf	___flmul@bexp,w
  5797     0419  1D03               	btfss	3,2
  5798     041A  2C1C               	goto	u4041
  5799     041B  2C1D               	goto	u4040
  5800     041C                     u4041:
  5801     041C  2C25               	goto	l3278
  5802     041D                     u4040:
  5803     041D                     l3276:
  5804     041D  3000               	movlw	0
  5805     041E  00A9               	movwf	___flmul@b+3
  5806     041F  3000               	movlw	0
  5807     0420  00A8               	movwf	___flmul@b+2
  5808     0421  3000               	movlw	0
  5809     0422  00A7               	movwf	___flmul@b+1
  5810     0423  3000               	movlw	0
  5811     0424  00A6               	movwf	___flmul@b
  5812     0425                     l3278:
  5813     0425  17A8               	bsf	___flmul@b+2,7
  5814     0426  2C2F               	goto	l3282
  5815     0427                     l3280:
  5816     0427  3000               	movlw	0
  5817     0428  00A9               	movwf	___flmul@b+3
  5818     0429  3000               	movlw	0
  5819     042A  00A8               	movwf	___flmul@b+2
  5820     042B  3000               	movlw	0
  5821     042C  00A7               	movwf	___flmul@b+1
  5822     042D  3000               	movlw	0
  5823     042E  00A6               	movwf	___flmul@b
  5824     042F                     l3282:
  5825     042F  082D               	movf	___flmul@a+3,w
  5826     0430  3980               	andlw	128
  5827     0431  06B3               	xorwf	___flmul@sign,f
  5828     0432                     l3284:
  5829     0432  082D               	movf	___flmul@a+3,w
  5830     0433  00AE               	movwf	??___flmul
  5831     0434  072E               	addwf	??___flmul,w
  5832     0435  00B4               	movwf	___flmul@aexp
  5833     0436                     l3286:
  5834     0436  1FAC               	btfss	___flmul@a+2,7
  5835     0437  2C39               	goto	u4051
  5836     0438  2C3A               	goto	u4050
  5837     0439                     u4051:
  5838     0439  2C3B               	goto	l3290
  5839     043A                     u4050:
  5840     043A                     l3288:
  5841     043A  1434               	bsf	___flmul@aexp,0
  5842     043B                     l3290:
  5843     043B  0834               	movf	___flmul@aexp,w
  5844     043C  1903               	btfsc	3,2
  5845     043D  2C3F               	goto	u4061
  5846     043E  2C40               	goto	u4060
  5847     043F                     u4061:
  5848     043F  2C4F               	goto	l3298
  5849     0440                     u4060:
  5850     0440                     l3292:
  5851     0440  0A34               	incf	___flmul@aexp,w
  5852     0441  1D03               	btfss	3,2
  5853     0442  2C44               	goto	u4071
  5854     0443  2C45               	goto	u4070
  5855     0444                     u4071:
  5856     0444  2C4D               	goto	l3296
  5857     0445                     u4070:
  5858     0445                     l3294:
  5859     0445  3000               	movlw	0
  5860     0446  00AD               	movwf	___flmul@a+3
  5861     0447  3000               	movlw	0
  5862     0448  00AC               	movwf	___flmul@a+2
  5863     0449  3000               	movlw	0
  5864     044A  00AB               	movwf	___flmul@a+1
  5865     044B  3000               	movlw	0
  5866     044C  00AA               	movwf	___flmul@a
  5867     044D                     l3296:
  5868     044D  17AC               	bsf	___flmul@a+2,7
  5869     044E  2C57               	goto	l3300
  5870     044F                     l3298:
  5871     044F  3000               	movlw	0
  5872     0450  00AD               	movwf	___flmul@a+3
  5873     0451  3000               	movlw	0
  5874     0452  00AC               	movwf	___flmul@a+2
  5875     0453  3000               	movlw	0
  5876     0454  00AB               	movwf	___flmul@a+1
  5877     0455  3000               	movlw	0
  5878     0456  00AA               	movwf	___flmul@a
  5879     0457                     l3300:
  5880     0457  0834               	movf	___flmul@aexp,w
  5881     0458  1903               	btfsc	3,2
  5882     0459  2C5B               	goto	u4081
  5883     045A  2C5C               	goto	u4080
  5884     045B                     u4081:
  5885     045B  2C61               	goto	l3304
  5886     045C                     u4080:
  5887     045C                     l3302:
  5888     045C  0839               	movf	___flmul@bexp,w
  5889     045D  1D03               	btfss	3,2
  5890     045E  2C60               	goto	u4091
  5891     045F  2C61               	goto	u4090
  5892     0460                     u4091:
  5893     0460  2C6A               	goto	l3308
  5894     0461                     u4090:
  5895     0461                     l3304:
  5896     0461  3000               	movlw	0
  5897     0462  00A9               	movwf	?___flmul+3
  5898     0463  3000               	movlw	0
  5899     0464  00A8               	movwf	?___flmul+2
  5900     0465  3000               	movlw	0
  5901     0466  00A7               	movwf	?___flmul+1
  5902     0467  3000               	movlw	0
  5903     0468  00A6               	movwf	?___flmul
  5904     0469  2F45               	goto	l841
  5905     046A                     l3308:
  5906     046A  0826               	movf	___flmul@b,w
  5907     046B  00F2               	movwf	__Umul8_16@multiplicand
  5908     046C  082C               	movf	___flmul@a+2,w
  5909     046D  160A  118A  25B3  120A  118A  	fcall	__Umul8_16
  5910     0472  0873               	movf	?__Umul8_16+1,w
  5911     0473  1283               	bcf	3,5	;RP0=0, select bank0
  5912     0474  1303               	bcf	3,6	;RP1=0, select bank0
  5913     0475  00BF               	movwf	___flmul@temp+1
  5914     0476  0872               	movf	?__Umul8_16,w
  5915     0477  00BE               	movwf	___flmul@temp
  5916     0478                     l3310:
  5917     0478  083E               	movf	___flmul@temp,w
  5918     0479  00AE               	movwf	??___flmul
  5919     047A  01AF               	clrf	??___flmul+1
  5920     047B  01B0               	clrf	??___flmul+2
  5921     047C  01B1               	clrf	??___flmul+3
  5922     047D  0831               	movf	??___flmul+3,w
  5923     047E  00B8               	movwf	___flmul@grs+3
  5924     047F  0830               	movf	??___flmul+2,w
  5925     0480  00B7               	movwf	___flmul@grs+2
  5926     0481  082F               	movf	??___flmul+1,w
  5927     0482  00B6               	movwf	___flmul@grs+1
  5928     0483  082E               	movf	??___flmul,w
  5929     0484  00B5               	movwf	___flmul@grs
  5930     0485                     l3312:
  5931     0485  083F               	movf	___flmul@temp+1,w
  5932     0486  00AE               	movwf	??___flmul
  5933     0487  01AF               	clrf	??___flmul+1
  5934     0488  01B0               	clrf	??___flmul+2
  5935     0489  01B1               	clrf	??___flmul+3
  5936     048A  0831               	movf	??___flmul+3,w
  5937     048B  00BD               	movwf	___flmul@prod+3
  5938     048C  0830               	movf	??___flmul+2,w
  5939     048D  00BC               	movwf	___flmul@prod+2
  5940     048E  082F               	movf	??___flmul+1,w
  5941     048F  00BB               	movwf	___flmul@prod+1
  5942     0490  082E               	movf	??___flmul,w
  5943     0491  00BA               	movwf	___flmul@prod
  5944     0492  0827               	movf	___flmul@b+1,w
  5945     0493  00F2               	movwf	__Umul8_16@multiplicand
  5946     0494  082B               	movf	___flmul@a+1,w
  5947     0495  160A  118A  25B3  120A  118A  	fcall	__Umul8_16
  5948     049A  0873               	movf	?__Umul8_16+1,w
  5949     049B  1283               	bcf	3,5	;RP0=0, select bank0
  5950     049C  1303               	bcf	3,6	;RP1=0, select bank0
  5951     049D  00BF               	movwf	___flmul@temp+1
  5952     049E  0872               	movf	?__Umul8_16,w
  5953     049F  00BE               	movwf	___flmul@temp
  5954     04A0                     l3314:
  5955     04A0  083E               	movf	___flmul@temp,w
  5956     04A1  00AE               	movwf	??___flmul
  5957     04A2  01AF               	clrf	??___flmul+1
  5958     04A3  01B0               	clrf	??___flmul+2
  5959     04A4  01B1               	clrf	??___flmul+3
  5960     04A5  082E               	movf	??___flmul,w
  5961     04A6  07B5               	addwf	___flmul@grs,f
  5962     04A7  082F               	movf	??___flmul+1,w
  5963     04A8  1103               	clrz
  5964     04A9  1803               	skipnc
  5965     04AA  3E01               	addlw	1
  5966     04AB  1903               	skipnz
  5967     04AC  2CAE               	goto	u4101
  5968     04AD  07B6               	addwf	___flmul@grs+1,f
  5969     04AE                     u4101:
  5970     04AE  0830               	movf	??___flmul+2,w
  5971     04AF  1103               	clrz
  5972     04B0  1803               	skipnc
  5973     04B1  3E01               	addlw	1
  5974     04B2  1903               	skipnz
  5975     04B3  2CB5               	goto	u4102
  5976     04B4  07B7               	addwf	___flmul@grs+2,f
  5977     04B5                     u4102:
  5978     04B5  0831               	movf	??___flmul+3,w
  5979     04B6  1103               	clrz
  5980     04B7  1803               	skipnc
  5981     04B8  3E01               	addlw	1
  5982     04B9  1903               	skipnz
  5983     04BA  2CBC               	goto	u4103
  5984     04BB  07B8               	addwf	___flmul@grs+3,f
  5985     04BC                     u4103:
  5986     04BC                     l3316:
  5987     04BC  083F               	movf	___flmul@temp+1,w
  5988     04BD  00AE               	movwf	??___flmul
  5989     04BE  01AF               	clrf	??___flmul+1
  5990     04BF  01B0               	clrf	??___flmul+2
  5991     04C0  01B1               	clrf	??___flmul+3
  5992     04C1  082E               	movf	??___flmul,w
  5993     04C2  07BA               	addwf	___flmul@prod,f
  5994     04C3  082F               	movf	??___flmul+1,w
  5995     04C4  1103               	clrz
  5996     04C5  1803               	skipnc
  5997     04C6  3E01               	addlw	1
  5998     04C7  1903               	skipnz
  5999     04C8  2CCA               	goto	u4111
  6000     04C9  07BB               	addwf	___flmul@prod+1,f
  6001     04CA                     u4111:
  6002     04CA  0830               	movf	??___flmul+2,w
  6003     04CB  1103               	clrz
  6004     04CC  1803               	skipnc
  6005     04CD  3E01               	addlw	1
  6006     04CE  1903               	skipnz
  6007     04CF  2CD1               	goto	u4112
  6008     04D0  07BC               	addwf	___flmul@prod+2,f
  6009     04D1                     u4112:
  6010     04D1  0831               	movf	??___flmul+3,w
  6011     04D2  1103               	clrz
  6012     04D3  1803               	skipnc
  6013     04D4  3E01               	addlw	1
  6014     04D5  1903               	skipnz
  6015     04D6  2CD8               	goto	u4113
  6016     04D7  07BD               	addwf	___flmul@prod+3,f
  6017     04D8                     u4113:
  6018     04D8  0828               	movf	___flmul@b+2,w
  6019     04D9  00F2               	movwf	__Umul8_16@multiplicand
  6020     04DA  082A               	movf	___flmul@a,w
  6021     04DB  160A  118A  25B3  120A  118A  	fcall	__Umul8_16
  6022     04E0  0873               	movf	?__Umul8_16+1,w
  6023     04E1  1283               	bcf	3,5	;RP0=0, select bank0
  6024     04E2  1303               	bcf	3,6	;RP1=0, select bank0
  6025     04E3  00BF               	movwf	___flmul@temp+1
  6026     04E4  0872               	movf	?__Umul8_16,w
  6027     04E5  00BE               	movwf	___flmul@temp
  6028     04E6                     l3318:
  6029     04E6  083E               	movf	___flmul@temp,w
  6030     04E7  00AE               	movwf	??___flmul
  6031     04E8  01AF               	clrf	??___flmul+1
  6032     04E9  01B0               	clrf	??___flmul+2
  6033     04EA  01B1               	clrf	??___flmul+3
  6034     04EB  082E               	movf	??___flmul,w
  6035     04EC  07B5               	addwf	___flmul@grs,f
  6036     04ED  082F               	movf	??___flmul+1,w
  6037     04EE  1103               	clrz
  6038     04EF  1803               	skipnc
  6039     04F0  3E01               	addlw	1
  6040     04F1  1903               	skipnz
  6041     04F2  2CF4               	goto	u4121
  6042     04F3  07B6               	addwf	___flmul@grs+1,f
  6043     04F4                     u4121:
  6044     04F4  0830               	movf	??___flmul+2,w
  6045     04F5  1103               	clrz
  6046     04F6  1803               	skipnc
  6047     04F7  3E01               	addlw	1
  6048     04F8  1903               	skipnz
  6049     04F9  2CFB               	goto	u4122
  6050     04FA  07B7               	addwf	___flmul@grs+2,f
  6051     04FB                     u4122:
  6052     04FB  0831               	movf	??___flmul+3,w
  6053     04FC  1103               	clrz
  6054     04FD  1803               	skipnc
  6055     04FE  3E01               	addlw	1
  6056     04FF  1903               	skipnz
  6057     0500  2D02               	goto	u4123
  6058     0501  07B8               	addwf	___flmul@grs+3,f
  6059     0502                     u4123:
  6060     0502                     l3320:
  6061     0502  083F               	movf	___flmul@temp+1,w
  6062     0503  00AE               	movwf	??___flmul
  6063     0504  01AF               	clrf	??___flmul+1
  6064     0505  01B0               	clrf	??___flmul+2
  6065     0506  01B1               	clrf	??___flmul+3
  6066     0507  082E               	movf	??___flmul,w
  6067     0508  07BA               	addwf	___flmul@prod,f
  6068     0509  082F               	movf	??___flmul+1,w
  6069     050A  1103               	clrz
  6070     050B  1803               	skipnc
  6071     050C  3E01               	addlw	1
  6072     050D  1903               	skipnz
  6073     050E  2D10               	goto	u4131
  6074     050F  07BB               	addwf	___flmul@prod+1,f
  6075     0510                     u4131:
  6076     0510  0830               	movf	??___flmul+2,w
  6077     0511  1103               	clrz
  6078     0512  1803               	skipnc
  6079     0513  3E01               	addlw	1
  6080     0514  1903               	skipnz
  6081     0515  2D17               	goto	u4132
  6082     0516  07BC               	addwf	___flmul@prod+2,f
  6083     0517                     u4132:
  6084     0517  0831               	movf	??___flmul+3,w
  6085     0518  1103               	clrz
  6086     0519  1803               	skipnc
  6087     051A  3E01               	addlw	1
  6088     051B  1903               	skipnz
  6089     051C  2D1E               	goto	u4133
  6090     051D  07BD               	addwf	___flmul@prod+3,f
  6091     051E                     u4133:
  6092     051E                     l3322:
  6093     051E  3008               	movlw	8
  6094     051F  00AE               	movwf	??___flmul
  6095     0520                     u4145:
  6096     0520  1003               	clrc
  6097     0521  0DB5               	rlf	___flmul@grs,f
  6098     0522  0DB6               	rlf	___flmul@grs+1,f
  6099     0523  0DB7               	rlf	___flmul@grs+2,f
  6100     0524  0DB8               	rlf	___flmul@grs+3,f
  6101     0525  0BAE               	decfsz	??___flmul,f
  6102     0526  2D20               	goto	u4145
  6103     0527                     l3324:
  6104     0527  0827               	movf	___flmul@b+1,w
  6105     0528  00F2               	movwf	__Umul8_16@multiplicand
  6106     0529  082A               	movf	___flmul@a,w
  6107     052A  160A  118A  25B3  120A  118A  	fcall	__Umul8_16
  6108     052F  0873               	movf	?__Umul8_16+1,w
  6109     0530  1283               	bcf	3,5	;RP0=0, select bank0
  6110     0531  1303               	bcf	3,6	;RP1=0, select bank0
  6111     0532  00BF               	movwf	___flmul@temp+1
  6112     0533  0872               	movf	?__Umul8_16,w
  6113     0534  00BE               	movwf	___flmul@temp
  6114     0535                     l3326:
  6115     0535  083E               	movf	___flmul@temp,w
  6116     0536  00AE               	movwf	??___flmul
  6117     0537  083F               	movf	___flmul@temp+1,w
  6118     0538  00AF               	movwf	??___flmul+1
  6119     0539  01B0               	clrf	??___flmul+2
  6120     053A  01B1               	clrf	??___flmul+3
  6121     053B  082E               	movf	??___flmul,w
  6122     053C  07B5               	addwf	___flmul@grs,f
  6123     053D  082F               	movf	??___flmul+1,w
  6124     053E  1103               	clrz
  6125     053F  1803               	skipnc
  6126     0540  3E01               	addlw	1
  6127     0541  1903               	skipnz
  6128     0542  2D44               	goto	u4151
  6129     0543  07B6               	addwf	___flmul@grs+1,f
  6130     0544                     u4151:
  6131     0544  0830               	movf	??___flmul+2,w
  6132     0545  1103               	clrz
  6133     0546  1803               	skipnc
  6134     0547  3E01               	addlw	1
  6135     0548  1903               	skipnz
  6136     0549  2D4B               	goto	u4152
  6137     054A  07B7               	addwf	___flmul@grs+2,f
  6138     054B                     u4152:
  6139     054B  0831               	movf	??___flmul+3,w
  6140     054C  1103               	clrz
  6141     054D  1803               	skipnc
  6142     054E  3E01               	addlw	1
  6143     054F  1903               	skipnz
  6144     0550  2D52               	goto	u4153
  6145     0551  07B8               	addwf	___flmul@grs+3,f
  6146     0552                     u4153:
  6147     0552                     l3328:
  6148     0552  0826               	movf	___flmul@b,w
  6149     0553  00F2               	movwf	__Umul8_16@multiplicand
  6150     0554  082B               	movf	___flmul@a+1,w
  6151     0555  160A  118A  25B3  120A  118A  	fcall	__Umul8_16
  6152     055A  0873               	movf	?__Umul8_16+1,w
  6153     055B  1283               	bcf	3,5	;RP0=0, select bank0
  6154     055C  1303               	bcf	3,6	;RP1=0, select bank0
  6155     055D  00BF               	movwf	___flmul@temp+1
  6156     055E  0872               	movf	?__Umul8_16,w
  6157     055F  00BE               	movwf	___flmul@temp
  6158     0560                     l3330:
  6159     0560  083E               	movf	___flmul@temp,w
  6160     0561  00AE               	movwf	??___flmul
  6161     0562  083F               	movf	___flmul@temp+1,w
  6162     0563  00AF               	movwf	??___flmul+1
  6163     0564  01B0               	clrf	??___flmul+2
  6164     0565  01B1               	clrf	??___flmul+3
  6165     0566  082E               	movf	??___flmul,w
  6166     0567  07B5               	addwf	___flmul@grs,f
  6167     0568  082F               	movf	??___flmul+1,w
  6168     0569  1103               	clrz
  6169     056A  1803               	skipnc
  6170     056B  3E01               	addlw	1
  6171     056C  1903               	skipnz
  6172     056D  2D6F               	goto	u4161
  6173     056E  07B6               	addwf	___flmul@grs+1,f
  6174     056F                     u4161:
  6175     056F  0830               	movf	??___flmul+2,w
  6176     0570  1103               	clrz
  6177     0571  1803               	skipnc
  6178     0572  3E01               	addlw	1
  6179     0573  1903               	skipnz
  6180     0574  2D76               	goto	u4162
  6181     0575  07B7               	addwf	___flmul@grs+2,f
  6182     0576                     u4162:
  6183     0576  0831               	movf	??___flmul+3,w
  6184     0577  1103               	clrz
  6185     0578  1803               	skipnc
  6186     0579  3E01               	addlw	1
  6187     057A  1903               	skipnz
  6188     057B  2D7D               	goto	u4163
  6189     057C  07B8               	addwf	___flmul@grs+3,f
  6190     057D                     u4163:
  6191     057D                     l3332:
  6192     057D  3008               	movlw	8
  6193     057E  00AE               	movwf	??___flmul
  6194     057F                     u4175:
  6195     057F  1003               	clrc
  6196     0580  0DB5               	rlf	___flmul@grs,f
  6197     0581  0DB6               	rlf	___flmul@grs+1,f
  6198     0582  0DB7               	rlf	___flmul@grs+2,f
  6199     0583  0DB8               	rlf	___flmul@grs+3,f
  6200     0584  0BAE               	decfsz	??___flmul,f
  6201     0585  2D7F               	goto	u4175
  6202     0586  0826               	movf	___flmul@b,w
  6203     0587  00F2               	movwf	__Umul8_16@multiplicand
  6204     0588  082A               	movf	___flmul@a,w
  6205     0589  160A  118A  25B3  120A  118A  	fcall	__Umul8_16
  6206     058E  0873               	movf	?__Umul8_16+1,w
  6207     058F  1283               	bcf	3,5	;RP0=0, select bank0
  6208     0590  1303               	bcf	3,6	;RP1=0, select bank0
  6209     0591  00BF               	movwf	___flmul@temp+1
  6210     0592  0872               	movf	?__Umul8_16,w
  6211     0593  00BE               	movwf	___flmul@temp
  6212     0594                     l3334:
  6213     0594  083E               	movf	___flmul@temp,w
  6214     0595  00AE               	movwf	??___flmul
  6215     0596  083F               	movf	___flmul@temp+1,w
  6216     0597  00AF               	movwf	??___flmul+1
  6217     0598  01B0               	clrf	??___flmul+2
  6218     0599  01B1               	clrf	??___flmul+3
  6219     059A  082E               	movf	??___flmul,w
  6220     059B  07B5               	addwf	___flmul@grs,f
  6221     059C  082F               	movf	??___flmul+1,w
  6222     059D  1103               	clrz
  6223     059E  1803               	skipnc
  6224     059F  3E01               	addlw	1
  6225     05A0  1903               	skipnz
  6226     05A1  2DA3               	goto	u4181
  6227     05A2  07B6               	addwf	___flmul@grs+1,f
  6228     05A3                     u4181:
  6229     05A3  0830               	movf	??___flmul+2,w
  6230     05A4  1103               	clrz
  6231     05A5  1803               	skipnc
  6232     05A6  3E01               	addlw	1
  6233     05A7  1903               	skipnz
  6234     05A8  2DAA               	goto	u4182
  6235     05A9  07B7               	addwf	___flmul@grs+2,f
  6236     05AA                     u4182:
  6237     05AA  0831               	movf	??___flmul+3,w
  6238     05AB  1103               	clrz
  6239     05AC  1803               	skipnc
  6240     05AD  3E01               	addlw	1
  6241     05AE  1903               	skipnz
  6242     05AF  2DB1               	goto	u4183
  6243     05B0  07B8               	addwf	___flmul@grs+3,f
  6244     05B1                     u4183:
  6245     05B1                     l3336:
  6246     05B1  0827               	movf	___flmul@b+1,w
  6247     05B2  00F2               	movwf	__Umul8_16@multiplicand
  6248     05B3  082C               	movf	___flmul@a+2,w
  6249     05B4  160A  118A  25B3  120A  118A  	fcall	__Umul8_16
  6250     05B9  0873               	movf	?__Umul8_16+1,w
  6251     05BA  1283               	bcf	3,5	;RP0=0, select bank0
  6252     05BB  1303               	bcf	3,6	;RP1=0, select bank0
  6253     05BC  00BF               	movwf	___flmul@temp+1
  6254     05BD  0872               	movf	?__Umul8_16,w
  6255     05BE  00BE               	movwf	___flmul@temp
  6256     05BF  083E               	movf	___flmul@temp,w
  6257     05C0  00AE               	movwf	??___flmul
  6258     05C1  083F               	movf	___flmul@temp+1,w
  6259     05C2  00AF               	movwf	??___flmul+1
  6260     05C3  01B0               	clrf	??___flmul+2
  6261     05C4  01B1               	clrf	??___flmul+3
  6262     05C5  082E               	movf	??___flmul,w
  6263     05C6  07BA               	addwf	___flmul@prod,f
  6264     05C7  082F               	movf	??___flmul+1,w
  6265     05C8  1103               	clrz
  6266     05C9  1803               	skipnc
  6267     05CA  3E01               	addlw	1
  6268     05CB  1903               	skipnz
  6269     05CC  2DCE               	goto	u4191
  6270     05CD  07BB               	addwf	___flmul@prod+1,f
  6271     05CE                     u4191:
  6272     05CE  0830               	movf	??___flmul+2,w
  6273     05CF  1103               	clrz
  6274     05D0  1803               	skipnc
  6275     05D1  3E01               	addlw	1
  6276     05D2  1903               	skipnz
  6277     05D3  2DD5               	goto	u4192
  6278     05D4  07BC               	addwf	___flmul@prod+2,f
  6279     05D5                     u4192:
  6280     05D5  0831               	movf	??___flmul+3,w
  6281     05D6  1103               	clrz
  6282     05D7  1803               	skipnc
  6283     05D8  3E01               	addlw	1
  6284     05D9  1903               	skipnz
  6285     05DA  2DDC               	goto	u4193
  6286     05DB  07BD               	addwf	___flmul@prod+3,f
  6287     05DC                     u4193:
  6288     05DC                     l3338:
  6289     05DC  0828               	movf	___flmul@b+2,w
  6290     05DD  00F2               	movwf	__Umul8_16@multiplicand
  6291     05DE  082B               	movf	___flmul@a+1,w
  6292     05DF  160A  118A  25B3  120A  118A  	fcall	__Umul8_16
  6293     05E4  0873               	movf	?__Umul8_16+1,w
  6294     05E5  1283               	bcf	3,5	;RP0=0, select bank0
  6295     05E6  1303               	bcf	3,6	;RP1=0, select bank0
  6296     05E7  00BF               	movwf	___flmul@temp+1
  6297     05E8  0872               	movf	?__Umul8_16,w
  6298     05E9  00BE               	movwf	___flmul@temp
  6299     05EA                     l3340:
  6300     05EA  083E               	movf	___flmul@temp,w
  6301     05EB  00AE               	movwf	??___flmul
  6302     05EC  083F               	movf	___flmul@temp+1,w
  6303     05ED  00AF               	movwf	??___flmul+1
  6304     05EE  01B0               	clrf	??___flmul+2
  6305     05EF  01B1               	clrf	??___flmul+3
  6306     05F0  082E               	movf	??___flmul,w
  6307     05F1  07BA               	addwf	___flmul@prod,f
  6308     05F2  082F               	movf	??___flmul+1,w
  6309     05F3  1103               	clrz
  6310     05F4  1803               	skipnc
  6311     05F5  3E01               	addlw	1
  6312     05F6  1903               	skipnz
  6313     05F7  2DF9               	goto	u4201
  6314     05F8  07BB               	addwf	___flmul@prod+1,f
  6315     05F9                     u4201:
  6316     05F9  0830               	movf	??___flmul+2,w
  6317     05FA  1103               	clrz
  6318     05FB  1803               	skipnc
  6319     05FC  3E01               	addlw	1
  6320     05FD  1903               	skipnz
  6321     05FE  2E00               	goto	u4202
  6322     05FF  07BC               	addwf	___flmul@prod+2,f
  6323     0600                     u4202:
  6324     0600  0831               	movf	??___flmul+3,w
  6325     0601  1103               	clrz
  6326     0602  1803               	skipnc
  6327     0603  3E01               	addlw	1
  6328     0604  1903               	skipnz
  6329     0605  2E07               	goto	u4203
  6330     0606  07BD               	addwf	___flmul@prod+3,f
  6331     0607                     u4203:
  6332     0607  0828               	movf	___flmul@b+2,w
  6333     0608  00F2               	movwf	__Umul8_16@multiplicand
  6334     0609  082C               	movf	___flmul@a+2,w
  6335     060A  160A  118A  25B3  120A  118A  	fcall	__Umul8_16
  6336     060F  0873               	movf	?__Umul8_16+1,w
  6337     0610  1283               	bcf	3,5	;RP0=0, select bank0
  6338     0611  1303               	bcf	3,6	;RP1=0, select bank0
  6339     0612  00BF               	movwf	___flmul@temp+1
  6340     0613  0872               	movf	?__Umul8_16,w
  6341     0614  00BE               	movwf	___flmul@temp
  6342     0615                     l3342:
  6343     0615  083E               	movf	___flmul@temp,w
  6344     0616  00AE               	movwf	??___flmul
  6345     0617  083F               	movf	___flmul@temp+1,w
  6346     0618  00AF               	movwf	??___flmul+1
  6347     0619  01B0               	clrf	??___flmul+2
  6348     061A  01B1               	clrf	??___flmul+3
  6349     061B  3008               	movlw	8
  6350     061C                     u4215:
  6351     061C  1003               	clrc
  6352     061D  0DAE               	rlf	??___flmul,f
  6353     061E  0DAF               	rlf	??___flmul+1,f
  6354     061F  0DB0               	rlf	??___flmul+2,f
  6355     0620  0DB1               	rlf	??___flmul+3,f
  6356     0621                     u4210:
  6357     0621  3EFF               	addlw	-1
  6358     0622  1D03               	skipz
  6359     0623  2E1C               	goto	u4215
  6360     0624  082E               	movf	??___flmul,w
  6361     0625  07BA               	addwf	___flmul@prod,f
  6362     0626  082F               	movf	??___flmul+1,w
  6363     0627  1103               	clrz
  6364     0628  1803               	skipnc
  6365     0629  3E01               	addlw	1
  6366     062A  1903               	skipnz
  6367     062B  2E2D               	goto	u4221
  6368     062C  07BB               	addwf	___flmul@prod+1,f
  6369     062D                     u4221:
  6370     062D  0830               	movf	??___flmul+2,w
  6371     062E  1103               	clrz
  6372     062F  1803               	skipnc
  6373     0630  3E01               	addlw	1
  6374     0631  1903               	skipnz
  6375     0632  2E34               	goto	u4222
  6376     0633  07BC               	addwf	___flmul@prod+2,f
  6377     0634                     u4222:
  6378     0634  0831               	movf	??___flmul+3,w
  6379     0635  1103               	clrz
  6380     0636  1803               	skipnc
  6381     0637  3E01               	addlw	1
  6382     0638  1903               	skipnz
  6383     0639  2E3B               	goto	u4223
  6384     063A  07BD               	addwf	___flmul@prod+3,f
  6385     063B                     u4223:
  6386     063B                     l3344:
  6387     063B  0835               	movf	___flmul@grs,w
  6388     063C  00AE               	movwf	??___flmul
  6389     063D  0836               	movf	___flmul@grs+1,w
  6390     063E  00AF               	movwf	??___flmul+1
  6391     063F  0837               	movf	___flmul@grs+2,w
  6392     0640  00B0               	movwf	??___flmul+2
  6393     0641  0838               	movf	___flmul@grs+3,w
  6394     0642  00B1               	movwf	??___flmul+3
  6395     0643  3018               	movlw	24
  6396     0644                     u4235:
  6397     0644  1003               	clrc
  6398     0645  0CB1               	rrf	??___flmul+3,f
  6399     0646  0CB0               	rrf	??___flmul+2,f
  6400     0647  0CAF               	rrf	??___flmul+1,f
  6401     0648  0CAE               	rrf	??___flmul,f
  6402     0649                     u4230:
  6403     0649  3EFF               	addlw	-1
  6404     064A  1D03               	skipz
  6405     064B  2E44               	goto	u4235
  6406     064C  082E               	movf	??___flmul,w
  6407     064D  07BA               	addwf	___flmul@prod,f
  6408     064E  082F               	movf	??___flmul+1,w
  6409     064F  1103               	clrz
  6410     0650  1803               	skipnc
  6411     0651  3E01               	addlw	1
  6412     0652  1903               	skipnz
  6413     0653  2E55               	goto	u4241
  6414     0654  07BB               	addwf	___flmul@prod+1,f
  6415     0655                     u4241:
  6416     0655  0830               	movf	??___flmul+2,w
  6417     0656  1103               	clrz
  6418     0657  1803               	skipnc
  6419     0658  3E01               	addlw	1
  6420     0659  1903               	skipnz
  6421     065A  2E5C               	goto	u4242
  6422     065B  07BC               	addwf	___flmul@prod+2,f
  6423     065C                     u4242:
  6424     065C  0831               	movf	??___flmul+3,w
  6425     065D  1103               	clrz
  6426     065E  1803               	skipnc
  6427     065F  3E01               	addlw	1
  6428     0660  1903               	skipnz
  6429     0661  2E63               	goto	u4243
  6430     0662  07BD               	addwf	___flmul@prod+3,f
  6431     0663                     u4243:
  6432     0663                     l3346:
  6433     0663  3008               	movlw	8
  6434     0664  00AE               	movwf	??___flmul
  6435     0665                     u4255:
  6436     0665  1003               	clrc
  6437     0666  0DB5               	rlf	___flmul@grs,f
  6438     0667  0DB6               	rlf	___flmul@grs+1,f
  6439     0668  0DB7               	rlf	___flmul@grs+2,f
  6440     0669  0DB8               	rlf	___flmul@grs+3,f
  6441     066A  0BAE               	decfsz	??___flmul,f
  6442     066B  2E65               	goto	u4255
  6443     066C                     l3348:
  6444     066C  0839               	movf	___flmul@bexp,w
  6445     066D  0734               	addwf	___flmul@aexp,w
  6446     066E  00AE               	movwf	??___flmul
  6447     066F  01AF               	clrf	??___flmul+1
  6448     0670  0DAF               	rlf	??___flmul+1,f
  6449     0671  082E               	movf	??___flmul,w
  6450     0672  3E82               	addlw	130
  6451     0673  00BE               	movwf	___flmul@temp
  6452     0674  082F               	movf	??___flmul+1,w
  6453     0675  1803               	skipnc
  6454     0676  3E01               	addlw	1
  6455     0677  3EFF               	addlw	255
  6456     0678  00BF               	movwf	___flmul@temp+1
  6457     0679  2E97               	goto	l3360
  6458     067A                     l3350:
  6459     067A  3001               	movlw	1
  6460     067B  00AE               	movwf	??___flmul
  6461     067C                     u4265:
  6462     067C  1003               	clrc
  6463     067D  0DBA               	rlf	___flmul@prod,f
  6464     067E  0DBB               	rlf	___flmul@prod+1,f
  6465     067F  0DBC               	rlf	___flmul@prod+2,f
  6466     0680  0DBD               	rlf	___flmul@prod+3,f
  6467     0681  0BAE               	decfsz	??___flmul,f
  6468     0682  2E7C               	goto	u4265
  6469     0683                     l3352:
  6470     0683  1FB8               	btfss	___flmul@grs+3,7
  6471     0684  2E86               	goto	u4271
  6472     0685  2E87               	goto	u4270
  6473     0686                     u4271:
  6474     0686  2E88               	goto	l3356
  6475     0687                     u4270:
  6476     0687                     l3354:
  6477     0687  143A               	bsf	___flmul@prod,0
  6478     0688                     l3356:
  6479     0688  3001               	movlw	1
  6480     0689  00AE               	movwf	??___flmul
  6481     068A                     u4285:
  6482     068A  1003               	clrc
  6483     068B  0DB5               	rlf	___flmul@grs,f
  6484     068C  0DB6               	rlf	___flmul@grs+1,f
  6485     068D  0DB7               	rlf	___flmul@grs+2,f
  6486     068E  0DB8               	rlf	___flmul@grs+3,f
  6487     068F  0BAE               	decfsz	??___flmul,f
  6488     0690  2E8A               	goto	u4285
  6489     0691                     l3358:
  6490     0691  30FF               	movlw	255
  6491     0692  07BE               	addwf	___flmul@temp,f
  6492     0693  1803               	skipnc
  6493     0694  0ABF               	incf	___flmul@temp+1,f
  6494     0695  30FF               	movlw	255
  6495     0696  07BF               	addwf	___flmul@temp+1,f
  6496     0697                     l3360:
  6497     0697  1FBC               	btfss	___flmul@prod+2,7
  6498     0698  2E9A               	goto	u4291
  6499     0699  2E9B               	goto	u4290
  6500     069A                     u4291:
  6501     069A  2E7A               	goto	l3350
  6502     069B                     u4290:
  6503     069B                     l3362:
  6504     069B  01B4               	clrf	___flmul@aexp
  6505     069C                     l3364:
  6506     069C  1FB8               	btfss	___flmul@grs+3,7
  6507     069D  2E9F               	goto	u4301
  6508     069E  2EA0               	goto	u4300
  6509     069F                     u4301:
  6510     069F  2EBC               	goto	l3372
  6511     06A0                     u4300:
  6512     06A0                     l3366:
  6513     06A0  30FF               	movlw	255
  6514     06A1  0535               	andwf	___flmul@grs,w
  6515     06A2  00AE               	movwf	??___flmul
  6516     06A3  30FF               	movlw	255
  6517     06A4  0536               	andwf	___flmul@grs+1,w
  6518     06A5  00AF               	movwf	??___flmul+1
  6519     06A6  30FF               	movlw	255
  6520     06A7  0537               	andwf	___flmul@grs+2,w
  6521     06A8  00B0               	movwf	??___flmul+2
  6522     06A9  307F               	movlw	127
  6523     06AA  0538               	andwf	___flmul@grs+3,w
  6524     06AB  00B1               	movwf	??___flmul+3
  6525     06AC  0831               	movf	??___flmul+3,w
  6526     06AD  0430               	iorwf	??___flmul+2,w
  6527     06AE  042F               	iorwf	??___flmul+1,w
  6528     06AF  042E               	iorwf	??___flmul,w
  6529     06B0  1903               	skipnz
  6530     06B1  2EB3               	goto	u4311
  6531     06B2  2EB4               	goto	u4310
  6532     06B3                     u4311:
  6533     06B3  2EB7               	goto	l847
  6534     06B4                     u4310:
  6535     06B4                     l3368:
  6536     06B4  3001               	movlw	1
  6537     06B5  00B4               	movwf	___flmul@aexp
  6538     06B6  2EBC               	goto	l3372
  6539     06B7                     l847:
  6540     06B7  1C3A               	btfss	___flmul@prod,0
  6541     06B8  2EBA               	goto	u4321
  6542     06B9  2EBB               	goto	u4320
  6543     06BA                     u4321:
  6544     06BA  2EBC               	goto	l3372
  6545     06BB                     u4320:
  6546     06BB  2EB4               	goto	l3368
  6547     06BC                     l3372:
  6548     06BC  0834               	movf	___flmul@aexp,w
  6549     06BD  1903               	btfsc	3,2
  6550     06BE  2EC0               	goto	u4331
  6551     06BF  2EC1               	goto	u4330
  6552     06C0                     u4331:
  6553     06C0  2EF2               	goto	l3382
  6554     06C1                     u4330:
  6555     06C1                     l3374:
  6556     06C1  3001               	movlw	1
  6557     06C2  07BA               	addwf	___flmul@prod,f
  6558     06C3  3000               	movlw	0
  6559     06C4  1803               	skipnc
  6560     06C5  3001               	movlw	1
  6561     06C6  07BB               	addwf	___flmul@prod+1,f
  6562     06C7  3000               	movlw	0
  6563     06C8  1803               	skipnc
  6564     06C9  3001               	movlw	1
  6565     06CA  07BC               	addwf	___flmul@prod+2,f
  6566     06CB  3000               	movlw	0
  6567     06CC  1803               	skipnc
  6568     06CD  3001               	movlw	1
  6569     06CE  07BD               	addwf	___flmul@prod+3,f
  6570     06CF                     l3376:
  6571     06CF  1C3D               	btfss	___flmul@prod+3,0
  6572     06D0  2ED2               	goto	u4341
  6573     06D1  2ED3               	goto	u4340
  6574     06D2                     u4341:
  6575     06D2  2EF2               	goto	l3382
  6576     06D3                     u4340:
  6577     06D3                     l3378:
  6578     06D3  083A               	movf	___flmul@prod,w
  6579     06D4  00AE               	movwf	??___flmul
  6580     06D5  083B               	movf	___flmul@prod+1,w
  6581     06D6  00AF               	movwf	??___flmul+1
  6582     06D7  083C               	movf	___flmul@prod+2,w
  6583     06D8  00B0               	movwf	??___flmul+2
  6584     06D9  083D               	movf	___flmul@prod+3,w
  6585     06DA  00B1               	movwf	??___flmul+3
  6586     06DB  3001               	movlw	1
  6587     06DC  00B2               	movwf	??___flmul+4
  6588     06DD                     u4355:
  6589     06DD  0D31               	rlf	??___flmul+3,w
  6590     06DE  0CB1               	rrf	??___flmul+3,f
  6591     06DF  0CB0               	rrf	??___flmul+2,f
  6592     06E0  0CAF               	rrf	??___flmul+1,f
  6593     06E1  0CAE               	rrf	??___flmul,f
  6594     06E2                     u4350:
  6595     06E2  0BB2               	decfsz	??___flmul+4,f
  6596     06E3  2EDD               	goto	u4355
  6597     06E4  0831               	movf	??___flmul+3,w
  6598     06E5  00BD               	movwf	___flmul@prod+3
  6599     06E6  0830               	movf	??___flmul+2,w
  6600     06E7  00BC               	movwf	___flmul@prod+2
  6601     06E8  082F               	movf	??___flmul+1,w
  6602     06E9  00BB               	movwf	___flmul@prod+1
  6603     06EA  082E               	movf	??___flmul,w
  6604     06EB  00BA               	movwf	___flmul@prod
  6605     06EC                     l3380:
  6606     06EC  3001               	movlw	1
  6607     06ED  07BE               	addwf	___flmul@temp,f
  6608     06EE  1803               	skipnc
  6609     06EF  0ABF               	incf	___flmul@temp+1,f
  6610     06F0  3000               	movlw	0
  6611     06F1  07BF               	addwf	___flmul@temp+1,f
  6612     06F2                     l3382:
  6613     06F2  083F               	movf	___flmul@temp+1,w
  6614     06F3  3A80               	xorlw	128
  6615     06F4  00FF               	movwf	btemp+1
  6616     06F5  3080               	movlw	128
  6617     06F6  027F               	subwf	btemp+1,w
  6618     06F7  1D03               	skipz
  6619     06F8  2EFB               	goto	u4365
  6620     06F9  30FF               	movlw	255
  6621     06FA  023E               	subwf	___flmul@temp,w
  6622     06FB                     u4365:
  6623     06FB  1C03               	skipc
  6624     06FC  2EFE               	goto	u4361
  6625     06FD  2EFF               	goto	u4360
  6626     06FE                     u4361:
  6627     06FE  2F0A               	goto	l3386
  6628     06FF                     u4360:
  6629     06FF                     l3384:
  6630     06FF  307F               	movlw	127
  6631     0700  1283               	bcf	3,5	;RP0=0, select bank0
  6632     0701  1303               	bcf	3,6	;RP1=0, select bank0
  6633     0702  00BD               	movwf	___flmul@prod+3
  6634     0703  3080               	movlw	128
  6635     0704  00BC               	movwf	___flmul@prod+2
  6636     0705  3000               	movlw	0
  6637     0706  00BB               	movwf	___flmul@prod+1
  6638     0707  3000               	movlw	0
  6639     0708  00BA               	movwf	___flmul@prod
  6640     0709  2F3B               	goto	l853
  6641     070A                     l3386:
  6642     070A  1283               	bcf	3,5	;RP0=0, select bank0
  6643     070B  1303               	bcf	3,6	;RP1=0, select bank0
  6644     070C  083F               	movf	___flmul@temp+1,w
  6645     070D  3A80               	xorlw	128
  6646     070E  00FF               	movwf	btemp+1
  6647     070F  3080               	movlw	128
  6648     0710  027F               	subwf	btemp+1,w
  6649     0711  1D03               	skipz
  6650     0712  2F15               	goto	u4375
  6651     0713  3001               	movlw	1
  6652     0714  023E               	subwf	___flmul@temp,w
  6653     0715                     u4375:
  6654     0715  1803               	skipnc
  6655     0716  2F18               	goto	u4371
  6656     0717  2F19               	goto	u4370
  6657     0718                     u4371:
  6658     0718  2F25               	goto	l3392
  6659     0719                     u4370:
  6660     0719                     l3388:
  6661     0719  3000               	movlw	0
  6662     071A  1283               	bcf	3,5	;RP0=0, select bank0
  6663     071B  1303               	bcf	3,6	;RP1=0, select bank0
  6664     071C  00BD               	movwf	___flmul@prod+3
  6665     071D  3000               	movlw	0
  6666     071E  00BC               	movwf	___flmul@prod+2
  6667     071F  3000               	movlw	0
  6668     0720  00BB               	movwf	___flmul@prod+1
  6669     0721  3000               	movlw	0
  6670     0722  00BA               	movwf	___flmul@prod
  6671     0723                     l3390:
  6672     0723  01B3               	clrf	___flmul@sign
  6673     0724  2F3B               	goto	l853
  6674     0725                     l3392:
  6675     0725  1283               	bcf	3,5	;RP0=0, select bank0
  6676     0726  1303               	bcf	3,6	;RP1=0, select bank0
  6677     0727  083E               	movf	___flmul@temp,w
  6678     0728  00B9               	movwf	___flmul@bexp
  6679     0729  30FF               	movlw	255
  6680     072A  05BA               	andwf	___flmul@prod,f
  6681     072B  30FF               	movlw	255
  6682     072C  05BB               	andwf	___flmul@prod+1,f
  6683     072D  307F               	movlw	127
  6684     072E  05BC               	andwf	___flmul@prod+2,f
  6685     072F  3000               	movlw	0
  6686     0730  05BD               	andwf	___flmul@prod+3,f
  6687     0731                     l3394:
  6688     0731  1C39               	btfss	___flmul@bexp,0
  6689     0732  2F34               	goto	u4381
  6690     0733  2F35               	goto	u4380
  6691     0734                     u4381:
  6692     0734  2F36               	goto	l3398
  6693     0735                     u4380:
  6694     0735                     l3396:
  6695     0735  17BC               	bsf	___flmul@prod+2,7
  6696     0736                     l3398:
  6697     0736  0839               	movf	___flmul@bexp,w
  6698     0737  00AE               	movwf	??___flmul
  6699     0738  1003               	clrc
  6700     0739  0C2E               	rrf	??___flmul,w
  6701     073A  00BD               	movwf	___flmul@prod+3
  6702     073B                     l853:
  6703     073B  0833               	movf	___flmul@sign,w
  6704     073C  04BD               	iorwf	___flmul@prod+3,f
  6705     073D                     l3400:
  6706     073D  083D               	movf	___flmul@prod+3,w
  6707     073E  00A9               	movwf	?___flmul+3
  6708     073F  083C               	movf	___flmul@prod+2,w
  6709     0740  00A8               	movwf	?___flmul+2
  6710     0741  083B               	movf	___flmul@prod+1,w
  6711     0742  00A7               	movwf	?___flmul+1
  6712     0743  083A               	movf	___flmul@prod,w
  6713     0744  00A6               	movwf	?___flmul
  6714     0745                     l841:
  6715     0745  0008               	return
  6716     0746                     __end_of___flmul:
  6717                           
  6718                           	psect	text12
  6719     15B3                     __ptext12:	
  6720 ;; *************** function __Umul8_16 *****************
  6721 ;; Defined at:
  6722 ;;		line 4 in file "C:\Program Files\Microchip\xc8\v3.00\pic\sources\c99\common\Umul8_16.c"
  6723 ;; Parameters:    Size  Location     Type
  6724 ;;  multiplier      1    wreg     unsigned char 
  6725 ;;  multiplicand    1    2[COMMON] unsigned char 
  6726 ;; Auto vars:     Size  Location     Type
  6727 ;;  multiplier      1    4[BANK0 ] unsigned char 
  6728 ;;  word_mpld       2    2[BANK0 ] unsigned short 
  6729 ;;  product         2    0[BANK0 ] unsigned short 
  6730 ;; Return value:  Size  Location     Type
  6731 ;;                  2    2[COMMON] unsigned int 
  6732 ;; Registers used:
  6733 ;;		wreg, status,2, status,0
  6734 ;; Tracked objects:
  6735 ;;		On entry : 0/0
  6736 ;;		On exit  : 0/0
  6737 ;;		Unchanged: 0/0
  6738 ;; Data sizes:     COMMON   BANK0   BANK1   BANK3   BANK2
  6739 ;;      Params:         2       0       0       0       0
  6740 ;;      Locals:         0       5       0       0       0
  6741 ;;      Temps:          2       0       0       0       0
  6742 ;;      Totals:         4       5       0       0       0
  6743 ;;Total ram usage:        9 bytes
  6744 ;; Hardware stack levels used: 1
  6745 ;; Hardware stack levels required when called: 1
  6746 ;; This function calls:
  6747 ;;		Nothing
  6748 ;; This function is called by:
  6749 ;;		___flmul
  6750 ;; This function uses a non-reentrant model
  6751 ;;
  6752                           
  6753     15B3                     __Umul8_16:	
  6754                           ;psect for function __Umul8_16
  6755                           
  6756                           
  6757                           ;incstack = 0
  6758                           ; Regs used in __Umul8_16: [wreg+status,2+status,0]
  6759                           ;__Umul8_16@multiplier stored from wreg
  6760     15B3  1283               	bcf	3,5	;RP0=0, select bank0
  6761     15B4  1303               	bcf	3,6	;RP1=0, select bank0
  6762     15B5  00A4               	movwf	__Umul8_16@multiplier
  6763     15B6                     l3182:
  6764     15B6  01A0               	clrf	__Umul8_16@product
  6765     15B7  01A1               	clrf	__Umul8_16@product+1
  6766     15B8                     l3184:
  6767     15B8  0872               	movf	__Umul8_16@multiplicand,w
  6768     15B9  00F4               	movwf	??__Umul8_16
  6769     15BA  01F5               	clrf	??__Umul8_16+1
  6770     15BB  0874               	movf	??__Umul8_16,w
  6771     15BC  00A2               	movwf	__Umul8_16@word_mpld
  6772     15BD  0875               	movf	??__Umul8_16+1,w
  6773     15BE  00A3               	movwf	__Umul8_16@word_mpld+1
  6774     15BF                     l3186:
  6775     15BF  1C24               	btfss	__Umul8_16@multiplier,0
  6776     15C0  2DC2               	goto	u3881
  6777     15C1  2DC3               	goto	u3880
  6778     15C2                     u3881:
  6779     15C2  2DC9               	goto	l860
  6780     15C3                     u3880:
  6781     15C3                     l3188:
  6782     15C3  0822               	movf	__Umul8_16@word_mpld,w
  6783     15C4  07A0               	addwf	__Umul8_16@product,f
  6784     15C5  1803               	skipnc
  6785     15C6  0AA1               	incf	__Umul8_16@product+1,f
  6786     15C7  0823               	movf	__Umul8_16@word_mpld+1,w
  6787     15C8  07A1               	addwf	__Umul8_16@product+1,f
  6788     15C9                     l860:
  6789     15C9  3001               	movlw	1
  6790     15CA                     u3895:
  6791     15CA  1003               	clrc
  6792     15CB  0DA2               	rlf	__Umul8_16@word_mpld,f
  6793     15CC  0DA3               	rlf	__Umul8_16@word_mpld+1,f
  6794     15CD  3EFF               	addlw	-1
  6795     15CE  1D03               	skipz
  6796     15CF  2DCA               	goto	u3895
  6797     15D0  1003               	clrc
  6798     15D1  0CA4               	rrf	__Umul8_16@multiplier,f
  6799     15D2                     l3190:
  6800     15D2  0824               	movf	__Umul8_16@multiplier,w
  6801     15D3  1D03               	btfss	3,2
  6802     15D4  2DD6               	goto	u3901
  6803     15D5  2DD7               	goto	u3900
  6804     15D6                     u3901:
  6805     15D6  2DBF               	goto	l3186
  6806     15D7                     u3900:
  6807     15D7                     l3192:
  6808     15D7  0821               	movf	__Umul8_16@product+1,w
  6809     15D8  00F3               	movwf	?__Umul8_16+1
  6810     15D9  0820               	movf	__Umul8_16@product,w
  6811     15DA  00F2               	movwf	?__Umul8_16
  6812     15DB                     l862:
  6813     15DB  0008               	return
  6814     15DC                     __end_of__Umul8_16:
  6815                           
  6816                           	psect	text13
  6817     09C9                     __ptext13:	
  6818 ;; *************** function ___flge *****************
  6819 ;; Defined at:
  6820 ;;		line 4 in file "C:\Program Files\Microchip\xc8\v3.00\pic\sources\c99\common\flge.c"
  6821 ;; Parameters:    Size  Location     Type
  6822 ;;  ff1             4   40[BANK0 ] unsigned int 
  6823 ;;  ff2             4   44[BANK0 ] unsigned int 
  6824 ;; Auto vars:     Size  Location     Type
  6825 ;;		None
  6826 ;; Return value:  Size  Location     Type
  6827 ;;		None               void
  6828 ;; Registers used:
  6829 ;;		wreg, status,2, status,0
  6830 ;; Tracked objects:
  6831 ;;		On entry : 0/0
  6832 ;;		On exit  : 0/0
  6833 ;;		Unchanged: 0/0
  6834 ;; Data sizes:     COMMON   BANK0   BANK1   BANK3   BANK2
  6835 ;;      Params:         0       8       0       0       0
  6836 ;;      Locals:         0       0       0       0       0
  6837 ;;      Temps:          0       4       0       0       0
  6838 ;;      Totals:         0      12       0       0       0
  6839 ;;Total ram usage:       12 bytes
  6840 ;; Hardware stack levels used: 1
  6841 ;; Hardware stack levels required when called: 1
  6842 ;; This function calls:
  6843 ;;		Nothing
  6844 ;; This function is called by:
  6845 ;;		_run_program
  6846 ;; This function uses a non-reentrant model
  6847 ;;
  6848                           
  6849     09C9                     ___flge:	
  6850                           ;psect for function ___flge
  6851                           
  6852     09C9                     l2402:	
  6853                           ;incstack = 0
  6854                           ; Regs used in ___flge: [wreg+status,2+status,0]
  6855                           
  6856     09C9  3000               	movlw	0
  6857     09CA  1283               	bcf	3,5	;RP0=0, select bank0
  6858     09CB  1303               	bcf	3,6	;RP1=0, select bank0
  6859     09CC  0548               	andwf	___flge@ff1,w
  6860     09CD  00D0               	movwf	??___flge
  6861     09CE  3000               	movlw	0
  6862     09CF  0549               	andwf	___flge@ff1+1,w
  6863     09D0  00D1               	movwf	??___flge+1
  6864     09D1  3080               	movlw	128
  6865     09D2  054A               	andwf	___flge@ff1+2,w
  6866     09D3  00D2               	movwf	??___flge+2
  6867     09D4  307F               	movlw	127
  6868     09D5  054B               	andwf	___flge@ff1+3,w
  6869     09D6  00D3               	movwf	??___flge+3
  6870     09D7  0853               	movf	??___flge+3,w
  6871     09D8  0452               	iorwf	??___flge+2,w
  6872     09D9  0451               	iorwf	??___flge+1,w
  6873     09DA  0450               	iorwf	??___flge,w
  6874     09DB  1D03               	skipz
  6875     09DC  29DE               	goto	u2681
  6876     09DD  29DF               	goto	u2680
  6877     09DE                     u2681:
  6878     09DE  29E7               	goto	l622
  6879     09DF                     u2680:
  6880     09DF                     l2404:
  6881     09DF  3000               	movlw	0
  6882     09E0  00CB               	movwf	___flge@ff1+3
  6883     09E1  3000               	movlw	0
  6884     09E2  00CA               	movwf	___flge@ff1+2
  6885     09E3  3000               	movlw	0
  6886     09E4  00C9               	movwf	___flge@ff1+1
  6887     09E5  3000               	movlw	0
  6888     09E6  00C8               	movwf	___flge@ff1
  6889     09E7                     l622:
  6890     09E7  3000               	movlw	0
  6891     09E8  054C               	andwf	___flge@ff2,w
  6892     09E9  00D0               	movwf	??___flge
  6893     09EA  3000               	movlw	0
  6894     09EB  054D               	andwf	___flge@ff2+1,w
  6895     09EC  00D1               	movwf	??___flge+1
  6896     09ED  3080               	movlw	128
  6897     09EE  054E               	andwf	___flge@ff2+2,w
  6898     09EF  00D2               	movwf	??___flge+2
  6899     09F0  307F               	movlw	127
  6900     09F1  054F               	andwf	___flge@ff2+3,w
  6901     09F2  00D3               	movwf	??___flge+3
  6902     09F3  0853               	movf	??___flge+3,w
  6903     09F4  0452               	iorwf	??___flge+2,w
  6904     09F5  0451               	iorwf	??___flge+1,w
  6905     09F6  0450               	iorwf	??___flge,w
  6906     09F7  1D03               	skipz
  6907     09F8  29FA               	goto	u2691
  6908     09F9  29FB               	goto	u2690
  6909     09FA                     u2691:
  6910     09FA  2A03               	goto	l2408
  6911     09FB                     u2690:
  6912     09FB                     l2406:
  6913     09FB  3000               	movlw	0
  6914     09FC  00CF               	movwf	___flge@ff2+3
  6915     09FD  3000               	movlw	0
  6916     09FE  00CE               	movwf	___flge@ff2+2
  6917     09FF  3000               	movlw	0
  6918     0A00  00CD               	movwf	___flge@ff2+1
  6919     0A01  3000               	movlw	0
  6920     0A02  00CC               	movwf	___flge@ff2
  6921     0A03                     l2408:
  6922     0A03  1FCB               	btfss	___flge@ff1+3,7
  6923     0A04  2A06               	goto	u2701
  6924     0A05  2A07               	goto	u2700
  6925     0A06                     u2701:
  6926     0A06  2A2B               	goto	l2412
  6927     0A07                     u2700:
  6928     0A07                     l2410:
  6929     0A07  3000               	movlw	0
  6930     0A08  00D0               	movwf	??___flge
  6931     0A09  3000               	movlw	0
  6932     0A0A  00D1               	movwf	??___flge+1
  6933     0A0B  3000               	movlw	0
  6934     0A0C  00D2               	movwf	??___flge+2
  6935     0A0D  3080               	movlw	128
  6936     0A0E  00D3               	movwf	??___flge+3
  6937     0A0F  0848               	movf	___flge@ff1,w
  6938     0A10  02D0               	subwf	??___flge,f
  6939     0A11  0849               	movf	___flge@ff1+1,w
  6940     0A12  1C03               	skipc
  6941     0A13  0F49               	incfsz	___flge@ff1+1,w
  6942     0A14  2A16               	goto	u2711
  6943     0A15  2A17               	goto	u2712
  6944     0A16                     u2711:
  6945     0A16  02D1               	subwf	??___flge+1,f
  6946     0A17                     u2712:
  6947     0A17  084A               	movf	___flge@ff1+2,w
  6948     0A18  1C03               	skipc
  6949     0A19  0F4A               	incfsz	___flge@ff1+2,w
  6950     0A1A  2A1C               	goto	u2713
  6951     0A1B  2A1D               	goto	u2714
  6952     0A1C                     u2713:
  6953     0A1C  02D2               	subwf	??___flge+2,f
  6954     0A1D                     u2714:
  6955     0A1D  084B               	movf	___flge@ff1+3,w
  6956     0A1E  1C03               	skipc
  6957     0A1F  0F4B               	incfsz	___flge@ff1+3,w
  6958     0A20  2A22               	goto	u2715
  6959     0A21  2A23               	goto	u2716
  6960     0A22                     u2715:
  6961     0A22  02D3               	subwf	??___flge+3,f
  6962     0A23                     u2716:
  6963     0A23  0853               	movf	??___flge+3,w
  6964     0A24  00CB               	movwf	___flge@ff1+3
  6965     0A25  0852               	movf	??___flge+2,w
  6966     0A26  00CA               	movwf	___flge@ff1+2
  6967     0A27  0851               	movf	??___flge+1,w
  6968     0A28  00C9               	movwf	___flge@ff1+1
  6969     0A29  0850               	movf	??___flge,w
  6970     0A2A  00C8               	movwf	___flge@ff1
  6971     0A2B                     l2412:
  6972     0A2B  1FCF               	btfss	___flge@ff2+3,7
  6973     0A2C  2A2E               	goto	u2721
  6974     0A2D  2A2F               	goto	u2720
  6975     0A2E                     u2721:
  6976     0A2E  2A53               	goto	l625
  6977     0A2F                     u2720:
  6978     0A2F                     l2414:
  6979     0A2F  3000               	movlw	0
  6980     0A30  00D0               	movwf	??___flge
  6981     0A31  3000               	movlw	0
  6982     0A32  00D1               	movwf	??___flge+1
  6983     0A33  3000               	movlw	0
  6984     0A34  00D2               	movwf	??___flge+2
  6985     0A35  3080               	movlw	128
  6986     0A36  00D3               	movwf	??___flge+3
  6987     0A37  084C               	movf	___flge@ff2,w
  6988     0A38  02D0               	subwf	??___flge,f
  6989     0A39  084D               	movf	___flge@ff2+1,w
  6990     0A3A  1C03               	skipc
  6991     0A3B  0F4D               	incfsz	___flge@ff2+1,w
  6992     0A3C  2A3E               	goto	u2731
  6993     0A3D  2A3F               	goto	u2732
  6994     0A3E                     u2731:
  6995     0A3E  02D1               	subwf	??___flge+1,f
  6996     0A3F                     u2732:
  6997     0A3F  084E               	movf	___flge@ff2+2,w
  6998     0A40  1C03               	skipc
  6999     0A41  0F4E               	incfsz	___flge@ff2+2,w
  7000     0A42  2A44               	goto	u2733
  7001     0A43  2A45               	goto	u2734
  7002     0A44                     u2733:
  7003     0A44  02D2               	subwf	??___flge+2,f
  7004     0A45                     u2734:
  7005     0A45  084F               	movf	___flge@ff2+3,w
  7006     0A46  1C03               	skipc
  7007     0A47  0F4F               	incfsz	___flge@ff2+3,w
  7008     0A48  2A4A               	goto	u2735
  7009     0A49  2A4B               	goto	u2736
  7010     0A4A                     u2735:
  7011     0A4A  02D3               	subwf	??___flge+3,f
  7012     0A4B                     u2736:
  7013     0A4B  0853               	movf	??___flge+3,w
  7014     0A4C  00CF               	movwf	___flge@ff2+3
  7015     0A4D  0852               	movf	??___flge+2,w
  7016     0A4E  00CE               	movwf	___flge@ff2+2
  7017     0A4F  0851               	movf	??___flge+1,w
  7018     0A50  00CD               	movwf	___flge@ff2+1
  7019     0A51  0850               	movf	??___flge,w
  7020     0A52  00CC               	movwf	___flge@ff2
  7021     0A53                     l625:
  7022     0A53  3080               	movlw	128
  7023     0A54  06CB               	xorwf	___flge@ff1+3,f
  7024     0A55  3080               	movlw	128
  7025     0A56  06CF               	xorwf	___flge@ff2+3,f
  7026     0A57  084F               	movf	___flge@ff2+3,w
  7027     0A58  024B               	subwf	___flge@ff1+3,w
  7028     0A59  1D03               	skipz
  7029     0A5A  2A65               	goto	u2745
  7030     0A5B  084E               	movf	___flge@ff2+2,w
  7031     0A5C  024A               	subwf	___flge@ff1+2,w
  7032     0A5D  1D03               	skipz
  7033     0A5E  2A65               	goto	u2745
  7034     0A5F  084D               	movf	___flge@ff2+1,w
  7035     0A60  0249               	subwf	___flge@ff1+1,w
  7036     0A61  1D03               	skipz
  7037     0A62  2A65               	goto	u2745
  7038     0A63  084C               	movf	___flge@ff2,w
  7039     0A64  0248               	subwf	___flge@ff1,w
  7040     0A65                     u2745:
  7041     0A65  1803               	skipnc
  7042     0A66  2A68               	goto	u2741
  7043     0A67  2A69               	goto	u2740
  7044     0A68                     u2741:
  7045     0A68  2A6B               	goto	l2418
  7046     0A69                     u2740:
  7047     0A69                     l2416:
  7048     0A69  1003               	clrc
  7049     0A6A  2A6C               	goto	l630
  7050     0A6B                     l2418:
  7051     0A6B  1403               	setc
  7052     0A6C                     l630:
  7053     0A6C  0008               	return
  7054     0A6D                     __end_of___flge:
  7055                           
  7056                           	psect	text14
  7057     14F8                     __ptext14:	
  7058 ;; *************** function ___bmul *****************
  7059 ;; Defined at:
  7060 ;;		line 4 in file "C:\Program Files\Microchip\xc8\v3.00\pic\sources\c99\common\Umul8.c"
  7061 ;; Parameters:    Size  Location     Type
  7062 ;;  multiplier      1    wreg     unsigned char 
  7063 ;;  multiplicand    1    2[COMMON] unsigned char 
  7064 ;; Auto vars:     Size  Location     Type
  7065 ;;  multiplier      1    4[COMMON] unsigned char 
  7066 ;;  product         1    3[COMMON] unsigned char 
  7067 ;; Return value:  Size  Location     Type
  7068 ;;                  1    wreg      unsigned char 
  7069 ;; Registers used:
  7070 ;;		wreg, status,2, status,0
  7071 ;; Tracked objects:
  7072 ;;		On entry : 0/0
  7073 ;;		On exit  : 0/0
  7074 ;;		Unchanged: 0/0
  7075 ;; Data sizes:     COMMON   BANK0   BANK1   BANK3   BANK2
  7076 ;;      Params:         1       0       0       0       0
  7077 ;;      Locals:         2       0       0       0       0
  7078 ;;      Temps:          0       0       0       0       0
  7079 ;;      Totals:         3       0       0       0       0
  7080 ;;Total ram usage:        3 bytes
  7081 ;; Hardware stack levels used: 1
  7082 ;; Hardware stack levels required when called: 1
  7083 ;; This function calls:
  7084 ;;		Nothing
  7085 ;; This function is called by:
  7086 ;;		_run_program
  7087 ;; This function uses a non-reentrant model
  7088 ;;
  7089                           
  7090     14F8                     ___bmul:	
  7091                           ;psect for function ___bmul
  7092                           
  7093                           
  7094                           ;incstack = 0
  7095                           ; Regs used in ___bmul: [wreg+status,2+status,0]
  7096                           ;___bmul@multiplier stored from wreg
  7097     14F8  00F4               	movwf	___bmul@multiplier
  7098     14F9                     l2306:
  7099     14F9  01F3               	clrf	___bmul@product
  7100     14FA                     l2308:
  7101     14FA  1C74               	btfss	___bmul@multiplier,0
  7102     14FB  2CFD               	goto	u2471
  7103     14FC  2CFE               	goto	u2470
  7104     14FD                     u2471:
  7105     14FD  2D00               	goto	l2312
  7106     14FE                     u2470:
  7107     14FE                     l2310:
  7108     14FE  0872               	movf	___bmul@multiplicand,w
  7109     14FF  07F3               	addwf	___bmul@product,f
  7110     1500                     l2312:
  7111     1500  1003               	clrc
  7112     1501  0DF2               	rlf	___bmul@multiplicand,f
  7113     1502                     l2314:
  7114     1502  1003               	clrc
  7115     1503  0CF4               	rrf	___bmul@multiplier,f
  7116     1504  0874               	movf	___bmul@multiplier,w
  7117     1505  1D03               	btfss	3,2
  7118     1506  2D08               	goto	u2481
  7119     1507  2D09               	goto	u2480
  7120     1508                     u2481:
  7121     1508  2CFA               	goto	l2308
  7122     1509                     u2480:
  7123     1509                     l2316:
  7124     1509  0873               	movf	___bmul@product,w
  7125     150A                     l470:
  7126     150A  0008               	return
  7127     150B                     __end_of___bmul:
  7128                           
  7129                           	psect	text15
  7130     1680                     __ptext15:	
  7131 ;; *************** function ___awmod *****************
  7132 ;; Defined at:
  7133 ;;		line 5 in file "C:\Program Files\Microchip\xc8\v3.00\pic\sources\c99\common\awmod.c"
  7134 ;; Parameters:    Size  Location     Type
  7135 ;;  divisor         2    2[COMMON] int 
  7136 ;;  dividend        2    4[COMMON] int 
  7137 ;; Auto vars:     Size  Location     Type
  7138 ;;  sign            1    7[COMMON] unsigned char 
  7139 ;;  counter         1    6[COMMON] unsigned char 
  7140 ;; Return value:  Size  Location     Type
  7141 ;;                  2    2[COMMON] int 
  7142 ;; Registers used:
  7143 ;;		wreg, status,2, status,0
  7144 ;; Tracked objects:
  7145 ;;		On entry : 0/0
  7146 ;;		On exit  : 0/0
  7147 ;;		Unchanged: 0/0
  7148 ;; Data sizes:     COMMON   BANK0   BANK1   BANK3   BANK2
  7149 ;;      Params:         4       0       0       0       0
  7150 ;;      Locals:         2       0       0       0       0
  7151 ;;      Temps:          0       0       0       0       0
  7152 ;;      Totals:         6       0       0       0       0
  7153 ;;Total ram usage:        6 bytes
  7154 ;; Hardware stack levels used: 1
  7155 ;; Hardware stack levels required when called: 1
  7156 ;; This function calls:
  7157 ;;		Nothing
  7158 ;; This function is called by:
  7159 ;;		_water_level_screen
  7160 ;;		_run_program
  7161 ;; This function uses a non-reentrant model
  7162 ;;
  7163                           
  7164     1680                     ___awmod:	
  7165                           ;psect for function ___awmod
  7166                           
  7167     1680                     l3224:	
  7168                           ;incstack = 0
  7169                           ; Regs used in ___awmod: [wreg+status,2+status,0]
  7170                           
  7171     1680  01F7               	clrf	___awmod@sign
  7172     1681                     l3226:
  7173     1681  1FF5               	btfss	___awmod@dividend+1,7
  7174     1682  2E84               	goto	u3931
  7175     1683  2E85               	goto	u3930
  7176     1684                     u3931:
  7177     1684  2E8C               	goto	l3232
  7178     1685                     u3930:
  7179     1685                     l3228:
  7180     1685  09F4               	comf	___awmod@dividend,f
  7181     1686  09F5               	comf	___awmod@dividend+1,f
  7182     1687  0AF4               	incf	___awmod@dividend,f
  7183     1688  1903               	skipnz
  7184     1689  0AF5               	incf	___awmod@dividend+1,f
  7185     168A                     l3230:
  7186     168A  3001               	movlw	1
  7187     168B  00F7               	movwf	___awmod@sign
  7188     168C                     l3232:
  7189     168C  1FF3               	btfss	___awmod@divisor+1,7
  7190     168D  2E8F               	goto	u3941
  7191     168E  2E90               	goto	u3940
  7192     168F                     u3941:
  7193     168F  2E95               	goto	l3236
  7194     1690                     u3940:
  7195     1690                     l3234:
  7196     1690  09F2               	comf	___awmod@divisor,f
  7197     1691  09F3               	comf	___awmod@divisor+1,f
  7198     1692  0AF2               	incf	___awmod@divisor,f
  7199     1693  1903               	skipnz
  7200     1694  0AF3               	incf	___awmod@divisor+1,f
  7201     1695                     l3236:
  7202     1695  0872               	movf	___awmod@divisor,w
  7203     1696  0473               	iorwf	___awmod@divisor+1,w
  7204     1697  1903               	btfsc	3,2
  7205     1698  2E9A               	goto	u3951
  7206     1699  2E9B               	goto	u3950
  7207     169A                     u3951:
  7208     169A  2EC8               	goto	l3254
  7209     169B                     u3950:
  7210     169B                     l3238:
  7211     169B  3001               	movlw	1
  7212     169C  00F6               	movwf	___awmod@counter
  7213     169D  2EA7               	goto	l3244
  7214     169E                     l3240:
  7215     169E  3001               	movlw	1
  7216     169F                     u3965:
  7217     169F  1003               	clrc
  7218     16A0  0DF2               	rlf	___awmod@divisor,f
  7219     16A1  0DF3               	rlf	___awmod@divisor+1,f
  7220     16A2  3EFF               	addlw	-1
  7221     16A3  1D03               	skipz
  7222     16A4  2E9F               	goto	u3965
  7223     16A5                     l3242:
  7224     16A5  3001               	movlw	1
  7225     16A6  07F6               	addwf	___awmod@counter,f
  7226     16A7                     l3244:
  7227     16A7  1FF3               	btfss	___awmod@divisor+1,7
  7228     16A8  2EAA               	goto	u3971
  7229     16A9  2EAB               	goto	u3970
  7230     16AA                     u3971:
  7231     16AA  2E9E               	goto	l3240
  7232     16AB                     u3970:
  7233     16AB                     l3246:
  7234     16AB  0873               	movf	___awmod@divisor+1,w
  7235     16AC  0275               	subwf	___awmod@dividend+1,w
  7236     16AD  1D03               	skipz
  7237     16AE  2EB1               	goto	u3985
  7238     16AF  0872               	movf	___awmod@divisor,w
  7239     16B0  0274               	subwf	___awmod@dividend,w
  7240     16B1                     u3985:
  7241     16B1  1C03               	skipc
  7242     16B2  2EB4               	goto	u3981
  7243     16B3  2EB5               	goto	u3980
  7244     16B4                     u3981:
  7245     16B4  2EBB               	goto	l3250
  7246     16B5                     u3980:
  7247     16B5                     l3248:
  7248     16B5  0872               	movf	___awmod@divisor,w
  7249     16B6  02F4               	subwf	___awmod@dividend,f
  7250     16B7  0873               	movf	___awmod@divisor+1,w
  7251     16B8  1C03               	skipc
  7252     16B9  03F5               	decf	___awmod@dividend+1,f
  7253     16BA  02F5               	subwf	___awmod@dividend+1,f
  7254     16BB                     l3250:
  7255     16BB  3001               	movlw	1
  7256     16BC                     u3995:
  7257     16BC  1003               	clrc
  7258     16BD  0CF3               	rrf	___awmod@divisor+1,f
  7259     16BE  0CF2               	rrf	___awmod@divisor,f
  7260     16BF  3EFF               	addlw	-1
  7261     16C0  1D03               	skipz
  7262     16C1  2EBC               	goto	u3995
  7263     16C2                     l3252:
  7264     16C2  3001               	movlw	1
  7265     16C3  02F6               	subwf	___awmod@counter,f
  7266     16C4  1D03               	btfss	3,2
  7267     16C5  2EC7               	goto	u4001
  7268     16C6  2EC8               	goto	u4000
  7269     16C7                     u4001:
  7270     16C7  2EAB               	goto	l3246
  7271     16C8                     u4000:
  7272     16C8                     l3254:
  7273     16C8  0877               	movf	___awmod@sign,w
  7274     16C9  1903               	btfsc	3,2
  7275     16CA  2ECC               	goto	u4011
  7276     16CB  2ECD               	goto	u4010
  7277     16CC                     u4011:
  7278     16CC  2ED2               	goto	l3258
  7279     16CD                     u4010:
  7280     16CD                     l3256:
  7281     16CD  09F4               	comf	___awmod@dividend,f
  7282     16CE  09F5               	comf	___awmod@dividend+1,f
  7283     16CF  0AF4               	incf	___awmod@dividend,f
  7284     16D0  1903               	skipnz
  7285     16D1  0AF5               	incf	___awmod@dividend+1,f
  7286     16D2                     l3258:
  7287     16D2  0875               	movf	___awmod@dividend+1,w
  7288     16D3  00F3               	movwf	?___awmod+1
  7289     16D4  0874               	movf	___awmod@dividend,w
  7290     16D5  00F2               	movwf	?___awmod
  7291     16D6                     l610:
  7292     16D6  0008               	return
  7293     16D7                     __end_of___awmod:
  7294                           
  7295                           	psect	text16
  7296     1735                     __ptext16:	
  7297 ;; *************** function ___awdiv *****************
  7298 ;; Defined at:
  7299 ;;		line 5 in file "C:\Program Files\Microchip\xc8\v3.00\pic\sources\c99\common\awdiv.c"
  7300 ;; Parameters:    Size  Location     Type
  7301 ;;  divisor         2    2[COMMON] int 
  7302 ;;  dividend        2    4[COMMON] int 
  7303 ;; Auto vars:     Size  Location     Type
  7304 ;;  quotient        2    8[COMMON] int 
  7305 ;;  sign            1    7[COMMON] unsigned char 
  7306 ;;  counter         1    6[COMMON] unsigned char 
  7307 ;; Return value:  Size  Location     Type
  7308 ;;                  2    2[COMMON] int 
  7309 ;; Registers used:
  7310 ;;		wreg, status,2, status,0
  7311 ;; Tracked objects:
  7312 ;;		On entry : 0/0
  7313 ;;		On exit  : 0/0
  7314 ;;		Unchanged: 0/0
  7315 ;; Data sizes:     COMMON   BANK0   BANK1   BANK3   BANK2
  7316 ;;      Params:         4       0       0       0       0
  7317 ;;      Locals:         4       0       0       0       0
  7318 ;;      Temps:          0       0       0       0       0
  7319 ;;      Totals:         8       0       0       0       0
  7320 ;;Total ram usage:        8 bytes
  7321 ;; Hardware stack levels used: 1
  7322 ;; Hardware stack levels required when called: 1
  7323 ;; This function calls:
  7324 ;;		Nothing
  7325 ;; This function is called by:
  7326 ;;		_run_program
  7327 ;; This function uses a non-reentrant model
  7328 ;;
  7329                           
  7330     1735                     ___awdiv:	
  7331                           ;psect for function ___awdiv
  7332                           
  7333     1735                     l2320:	
  7334                           ;incstack = 0
  7335                           ; Regs used in ___awdiv: [wreg+status,2+status,0]
  7336                           
  7337     1735  01F7               	clrf	___awdiv@sign
  7338     1736                     l2322:
  7339     1736  1FF3               	btfss	___awdiv@divisor+1,7
  7340     1737  2F39               	goto	u2491
  7341     1738  2F3A               	goto	u2490
  7342     1739                     u2491:
  7343     1739  2F41               	goto	l2328
  7344     173A                     u2490:
  7345     173A                     l2324:
  7346     173A  09F2               	comf	___awdiv@divisor,f
  7347     173B  09F3               	comf	___awdiv@divisor+1,f
  7348     173C  0AF2               	incf	___awdiv@divisor,f
  7349     173D  1903               	skipnz
  7350     173E  0AF3               	incf	___awdiv@divisor+1,f
  7351     173F                     l2326:
  7352     173F  3001               	movlw	1
  7353     1740  00F7               	movwf	___awdiv@sign
  7354     1741                     l2328:
  7355     1741  1FF5               	btfss	___awdiv@dividend+1,7
  7356     1742  2F44               	goto	u2501
  7357     1743  2F45               	goto	u2500
  7358     1744                     u2501:
  7359     1744  2F4C               	goto	l2334
  7360     1745                     u2500:
  7361     1745                     l2330:
  7362     1745  09F4               	comf	___awdiv@dividend,f
  7363     1746  09F5               	comf	___awdiv@dividend+1,f
  7364     1747  0AF4               	incf	___awdiv@dividend,f
  7365     1748  1903               	skipnz
  7366     1749  0AF5               	incf	___awdiv@dividend+1,f
  7367     174A                     l2332:
  7368     174A  3001               	movlw	1
  7369     174B  06F7               	xorwf	___awdiv@sign,f
  7370     174C                     l2334:
  7371     174C  01F8               	clrf	___awdiv@quotient
  7372     174D  01F9               	clrf	___awdiv@quotient+1
  7373     174E                     l2336:
  7374     174E  0872               	movf	___awdiv@divisor,w
  7375     174F  0473               	iorwf	___awdiv@divisor+1,w
  7376     1750  1903               	btfsc	3,2
  7377     1751  2F53               	goto	u2511
  7378     1752  2F54               	goto	u2510
  7379     1753                     u2511:
  7380     1753  2F89               	goto	l2356
  7381     1754                     u2510:
  7382     1754                     l2338:
  7383     1754  3001               	movlw	1
  7384     1755  00F6               	movwf	___awdiv@counter
  7385     1756  2F60               	goto	l2344
  7386     1757                     l2340:
  7387     1757  3001               	movlw	1
  7388     1758                     u2525:
  7389     1758  1003               	clrc
  7390     1759  0DF2               	rlf	___awdiv@divisor,f
  7391     175A  0DF3               	rlf	___awdiv@divisor+1,f
  7392     175B  3EFF               	addlw	-1
  7393     175C  1D03               	skipz
  7394     175D  2F58               	goto	u2525
  7395     175E                     l2342:
  7396     175E  3001               	movlw	1
  7397     175F  07F6               	addwf	___awdiv@counter,f
  7398     1760                     l2344:
  7399     1760  1FF3               	btfss	___awdiv@divisor+1,7
  7400     1761  2F63               	goto	u2531
  7401     1762  2F64               	goto	u2530
  7402     1763                     u2531:
  7403     1763  2F57               	goto	l2340
  7404     1764                     u2530:
  7405     1764                     l2346:
  7406     1764  3001               	movlw	1
  7407     1765                     u2545:
  7408     1765  1003               	clrc
  7409     1766  0DF8               	rlf	___awdiv@quotient,f
  7410     1767  0DF9               	rlf	___awdiv@quotient+1,f
  7411     1768  3EFF               	addlw	-1
  7412     1769  1D03               	skipz
  7413     176A  2F65               	goto	u2545
  7414     176B  0873               	movf	___awdiv@divisor+1,w
  7415     176C  0275               	subwf	___awdiv@dividend+1,w
  7416     176D  1D03               	skipz
  7417     176E  2F71               	goto	u2555
  7418     176F  0872               	movf	___awdiv@divisor,w
  7419     1770  0274               	subwf	___awdiv@dividend,w
  7420     1771                     u2555:
  7421     1771  1C03               	skipc
  7422     1772  2F74               	goto	u2551
  7423     1773  2F75               	goto	u2550
  7424     1774                     u2551:
  7425     1774  2F7C               	goto	l2352
  7426     1775                     u2550:
  7427     1775                     l2348:
  7428     1775  0872               	movf	___awdiv@divisor,w
  7429     1776  02F4               	subwf	___awdiv@dividend,f
  7430     1777  0873               	movf	___awdiv@divisor+1,w
  7431     1778  1C03               	skipc
  7432     1779  03F5               	decf	___awdiv@dividend+1,f
  7433     177A  02F5               	subwf	___awdiv@dividend+1,f
  7434     177B                     l2350:
  7435     177B  1478               	bsf	___awdiv@quotient,0
  7436     177C                     l2352:
  7437     177C  3001               	movlw	1
  7438     177D                     u2565:
  7439     177D  1003               	clrc
  7440     177E  0CF3               	rrf	___awdiv@divisor+1,f
  7441     177F  0CF2               	rrf	___awdiv@divisor,f
  7442     1780  3EFF               	addlw	-1
  7443     1781  1D03               	skipz
  7444     1782  2F7D               	goto	u2565
  7445     1783                     l2354:
  7446     1783  3001               	movlw	1
  7447     1784  02F6               	subwf	___awdiv@counter,f
  7448     1785  1D03               	btfss	3,2
  7449     1786  2F88               	goto	u2571
  7450     1787  2F89               	goto	u2570
  7451     1788                     u2571:
  7452     1788  2F64               	goto	l2346
  7453     1789                     u2570:
  7454     1789                     l2356:
  7455     1789  0877               	movf	___awdiv@sign,w
  7456     178A  1903               	btfsc	3,2
  7457     178B  2F8D               	goto	u2581
  7458     178C  2F8E               	goto	u2580
  7459     178D                     u2581:
  7460     178D  2F93               	goto	l2360
  7461     178E                     u2580:
  7462     178E                     l2358:
  7463     178E  09F8               	comf	___awdiv@quotient,f
  7464     178F  09F9               	comf	___awdiv@quotient+1,f
  7465     1790  0AF8               	incf	___awdiv@quotient,f
  7466     1791  1903               	skipnz
  7467     1792  0AF9               	incf	___awdiv@quotient+1,f
  7468     1793                     l2360:
  7469     1793  0879               	movf	___awdiv@quotient+1,w
  7470     1794  00F3               	movwf	?___awdiv+1
  7471     1795  0878               	movf	___awdiv@quotient,w
  7472     1796  00F2               	movwf	?___awdiv
  7473     1797                     l597:
  7474     1797  0008               	return
  7475     1798                     __end_of___awdiv:
  7476                           
  7477                           	psect	text17
  7478     0845                     __ptext17:	
  7479 ;; *************** function _read_digital_keypad *****************
  7480 ;; Defined at:
  7481 ;;		line 10 in file "digital_keypad.c"
  7482 ;; Parameters:    Size  Location     Type
  7483 ;;  mode            1    wreg     unsigned char 
  7484 ;; Auto vars:     Size  Location     Type
  7485 ;;  mode            1    3[COMMON] unsigned char 
  7486 ;;  key             1    4[COMMON] unsigned char 
  7487 ;; Return value:  Size  Location     Type
  7488 ;;                  1    wreg      unsigned char 
  7489 ;; Registers used:
  7490 ;;		wreg, status,2, status,0
  7491 ;; Tracked objects:
  7492 ;;		On entry : 0/0
  7493 ;;		On exit  : 0/0
  7494 ;;		Unchanged: 0/0
  7495 ;; Data sizes:     COMMON   BANK0   BANK1   BANK3   BANK2
  7496 ;;      Params:         0       0       0       0       0
  7497 ;;      Locals:         2       0       0       0       0
  7498 ;;      Temps:          1       0       0       0       0
  7499 ;;      Totals:         3       0       0       0       0
  7500 ;;Total ram usage:        3 bytes
  7501 ;; Hardware stack levels used: 1
  7502 ;; Hardware stack levels required when called: 1
  7503 ;; This function calls:
  7504 ;;		Nothing
  7505 ;; This function is called by:
  7506 ;;		_main
  7507 ;; This function uses a non-reentrant model
  7508 ;;
  7509                           
  7510     0845                     _read_digital_keypad:	
  7511                           ;psect for function _read_digital_keypad
  7512                           
  7513                           
  7514                           ;incstack = 0
  7515                           ; Regs used in _read_digital_keypad: [wreg+status,2+status,0]
  7516                           ;read_digital_keypad@mode stored from wreg
  7517     0845  00F3               	movwf	read_digital_keypad@mode
  7518     0846                     l2648:
  7519                           
  7520                           ;digital_keypad.c: 10: unsigned char read_digital_keypad(unsigned char mode);digital_key
      +                          pad.c: 11: {;digital_keypad.c: 12:     static unsigned char once = 1;;digital_keypad.c: 
      +                          13:     static unsigned char long_press = 1;;digital_keypad.c: 14:     unsigned char key
      +                           = PORTB & 0x3F;
  7521     0846  1283               	bcf	3,5	;RP0=0, select bank0
  7522     0847  1303               	bcf	3,6	;RP1=0, select bank0
  7523     0848  0806               	movf	6,w	;volatile
  7524     0849  00F4               	movwf	read_digital_keypad@key
  7525     084A                     l2650:
  7526     084A  303F               	movlw	63
  7527     084B  05F4               	andwf	read_digital_keypad@key,f
  7528     084C                     l2652:
  7529                           
  7530                           ;digital_keypad.c: 15:     static unsigned char pre_key;;digital_keypad.c: 16:     if((k
      +                          ey != 0x3F) && once)
  7531     084C  303F               	movlw	63
  7532     084D  0674               	xorwf	read_digital_keypad@key,w
  7533     084E  1903               	btfsc	3,2
  7534     084F  2851               	goto	u3361
  7535     0850  2852               	goto	u3360
  7536     0851                     u3361:
  7537     0851  285C               	goto	l2662
  7538     0852                     u3360:
  7539     0852                     l2654:
  7540     0852  087B               	movf	read_digital_keypad@once,w
  7541     0853  1903               	btfsc	3,2
  7542     0854  2856               	goto	u3371
  7543     0855  2857               	goto	u3370
  7544     0856                     u3371:
  7545     0856  285C               	goto	l2662
  7546     0857                     u3370:
  7547     0857                     l2656:
  7548                           
  7549                           ;digital_keypad.c: 17:     {;digital_keypad.c: 18:         once = 0;
  7550     0857  01FB               	clrf	read_digital_keypad@once
  7551     0858                     l2658:
  7552                           
  7553                           ;digital_keypad.c: 19:         pre_key = key;
  7554     0858  0874               	movf	read_digital_keypad@key,w
  7555     0859  00EC               	movwf	read_digital_keypad@pre_key
  7556     085A                     l2660:
  7557                           
  7558                           ;digital_keypad.c: 20:         long_press = 0;
  7559     085A  01EF               	clrf	read_digital_keypad@long_press
  7560                           
  7561                           ;digital_keypad.c: 21:     }else if((key == 0x3F) && !once){
  7562     085B  288E               	goto	l2692
  7563     085C                     l2662:
  7564     085C  303F               	movlw	63
  7565     085D  0674               	xorwf	read_digital_keypad@key,w
  7566     085E  1D03               	btfss	3,2
  7567     085F  2861               	goto	u3381
  7568     0860  2862               	goto	u3380
  7569     0861                     u3381:
  7570     0861  2871               	goto	l2674
  7571     0862                     u3380:
  7572     0862                     l2664:
  7573     0862  087B               	movf	read_digital_keypad@once,w
  7574     0863  1D03               	btfss	3,2
  7575     0864  2866               	goto	u3391
  7576     0865  2867               	goto	u3390
  7577     0866                     u3391:
  7578     0866  2871               	goto	l2674
  7579     0867                     u3390:
  7580     0867                     l2666:
  7581                           
  7582                           ;digital_keypad.c: 22:         once = 1;
  7583     0867  3001               	movlw	1
  7584     0868  00FB               	movwf	read_digital_keypad@once
  7585     0869                     l2668:
  7586                           
  7587                           ;digital_keypad.c: 23:         if(long_press < 15)
  7588     0869  300F               	movlw	15
  7589     086A  026F               	subwf	read_digital_keypad@long_press,w
  7590     086B  1803               	skipnc
  7591     086C  286E               	goto	u3401
  7592     086D  286F               	goto	u3400
  7593     086E                     u3401:
  7594     086E  288E               	goto	l2692
  7595     086F                     u3400:
  7596     086F                     l2670:
  7597                           
  7598                           ;digital_keypad.c: 24:             return pre_key;
  7599     086F  086C               	movf	read_digital_keypad@pre_key,w
  7600     0870  28B2               	goto	l52
  7601     0871                     l2674:
  7602     0871  087B               	movf	read_digital_keypad@once,w
  7603     0872  1D03               	btfss	3,2
  7604     0873  2875               	goto	u3411
  7605     0874  2876               	goto	u3410
  7606     0875                     u3411:
  7607     0875  287F               	goto	l2680
  7608     0876                     u3410:
  7609     0876                     l2676:
  7610     0876  3010               	movlw	16
  7611     0877  026F               	subwf	read_digital_keypad@long_press,w
  7612     0878  1803               	skipnc
  7613     0879  287B               	goto	u3421
  7614     087A  287C               	goto	u3420
  7615     087B                     u3421:
  7616     087B  287F               	goto	l2680
  7617     087C                     u3420:
  7618     087C                     l2678:
  7619                           
  7620                           ;digital_keypad.c: 26:         long_press++;
  7621     087C  3001               	movlw	1
  7622     087D  07EF               	addwf	read_digital_keypad@long_press,f
  7623     087E  288E               	goto	l2692
  7624     087F                     l2680:
  7625     087F  087B               	movf	read_digital_keypad@once,w
  7626     0880  1D03               	btfss	3,2
  7627     0881  2883               	goto	u3431
  7628     0882  2884               	goto	u3430
  7629     0883                     u3431:
  7630     0883  288E               	goto	l53
  7631     0884                     u3430:
  7632     0884                     l2682:
  7633     0884  3010               	movlw	16
  7634     0885  066F               	xorwf	read_digital_keypad@long_press,w
  7635     0886  1D03               	btfss	3,2
  7636     0887  2889               	goto	u3441
  7637     0888  288A               	goto	u3440
  7638     0889                     u3441:
  7639     0889  288E               	goto	l53
  7640     088A                     u3440:
  7641     088A                     l2684:
  7642     088A                     l2686:
  7643                           
  7644                           ;digital_keypad.c: 28:         long_press++;
  7645     088A  3001               	movlw	1
  7646     088B  07EF               	addwf	read_digital_keypad@long_press,f
  7647     088C                     l2688:
  7648                           
  7649                           ;digital_keypad.c: 29:         return 0x99;
  7650     088C  3099               	movlw	153
  7651     088D  28B2               	goto	l52
  7652     088E                     l53:
  7653     088E                     l2692:
  7654                           
  7655                           ;digital_keypad.c: 32:     if (mode == 0)
  7656     088E  0873               	movf	read_digital_keypad@mode,w
  7657     088F  1D03               	btfss	3,2
  7658     0890  2892               	goto	u3451
  7659     0891  2893               	goto	u3450
  7660     0892                     u3451:
  7661     0892  2896               	goto	l2700
  7662     0893                     u3450:
  7663     0893                     l2694:
  7664                           
  7665                           ;digital_keypad.c: 33:     {;digital_keypad.c: 34:         return PORTB & 0x3F;
  7666     0893  0806               	movf	6,w	;volatile
  7667     0894  393F               	andlw	63
  7668     0895  28B2               	goto	l52
  7669     0896                     l2700:
  7670                           
  7671                           ;digital_keypad.c: 37:     {;digital_keypad.c: 38:         if (((PORTB & 0x3F) != 0x3F) 
      +                          && once)
  7672     0896  303F               	movlw	63
  7673     0897  0506               	andwf	6,w	;volatile
  7674     0898  00F2               	movwf	??_read_digital_keypad
  7675     0899  303F               	movlw	63
  7676     089A  0672               	xorwf	??_read_digital_keypad,w
  7677     089B  1903               	btfsc	3,2
  7678     089C  289E               	goto	u3461
  7679     089D  289F               	goto	u3460
  7680     089E                     u3461:
  7681     089E  28A6               	goto	l2712
  7682     089F                     u3460:
  7683     089F                     l2702:
  7684     089F  087B               	movf	read_digital_keypad@once,w
  7685     08A0  1903               	btfsc	3,2
  7686     08A1  28A3               	goto	u3471
  7687     08A2  28A4               	goto	u3470
  7688     08A3                     u3471:
  7689     08A3  28A6               	goto	l2712
  7690     08A4                     u3470:
  7691     08A4                     l2704:
  7692                           
  7693                           ;digital_keypad.c: 39:         {;digital_keypad.c: 40:             once = 0;
  7694     08A4  01FB               	clrf	read_digital_keypad@once
  7695     08A5  2893               	goto	l2694
  7696     08A6                     l2712:
  7697     08A6  303F               	movlw	63
  7698     08A7  0506               	andwf	6,w	;volatile
  7699     08A8  00F2               	movwf	??_read_digital_keypad
  7700     08A9  303F               	movlw	63
  7701     08AA  0672               	xorwf	??_read_digital_keypad,w
  7702     08AB  1D03               	btfss	3,2
  7703     08AC  28AE               	goto	u3481
  7704     08AD  28AF               	goto	u3480
  7705     08AE                     u3481:
  7706     08AE  28B1               	goto	l2716
  7707     08AF                     u3480:
  7708     08AF                     l2714:
  7709                           
  7710                           ;digital_keypad.c: 45:         {;digital_keypad.c: 46:             once = 1;
  7711     08AF  3001               	movlw	1
  7712     08B0  00FB               	movwf	read_digital_keypad@once
  7713     08B1                     l2716:
  7714                           
  7715                           ;digital_keypad.c: 50:     return 0x3F;
  7716     08B1  303F               	movlw	63
  7717     08B2                     l52:
  7718     08B2  0008               	return
  7719     08B3                     __end_of_read_digital_keypad:
  7720                           
  7721                           	psect	text18
  7722     1798                     __ptext18:	
  7723 ;; *************** function _power_on_screen *****************
  7724 ;; Defined at:
  7725 ;;		line 10 in file "washing_machine_function_def.c"
  7726 ;; Parameters:    Size  Location     Type
  7727 ;;		None
  7728 ;; Auto vars:     Size  Location     Type
  7729 ;;  i               1    7[BANK0 ] unsigned char 
  7730 ;;  i               1    6[BANK0 ] unsigned char 
  7731 ;; Return value:  Size  Location     Type
  7732 ;;                  1    wreg      void 
  7733 ;; Registers used:
  7734 ;;		wreg, fsr0l, fsr0h, status,2, status,0, btemp+1, pclath, cstack
  7735 ;; Tracked objects:
  7736 ;;		On entry : 0/0
  7737 ;;		On exit  : 0/0
  7738 ;;		Unchanged: 0/0
  7739 ;; Data sizes:     COMMON   BANK0   BANK1   BANK3   BANK2
  7740 ;;      Params:         0       0       0       0       0
  7741 ;;      Locals:         0       2       0       0       0
  7742 ;;      Temps:          0       3       0       0       0
  7743 ;;      Totals:         0       5       0       0       0
  7744 ;;Total ram usage:        5 bytes
  7745 ;; Hardware stack levels used: 1
  7746 ;; Hardware stack levels required when called: 3
  7747 ;; This function calls:
  7748 ;;		_clcd_print
  7749 ;;		_clcd_putch
  7750 ;; This function is called by:
  7751 ;;		_main
  7752 ;; This function uses a non-reentrant model
  7753 ;;
  7754                           
  7755     1798                     _power_on_screen:	
  7756                           ;psect for function _power_on_screen
  7757                           
  7758     1798                     l3420:	
  7759                           ;incstack = 0
  7760                           ; Regs used in _power_on_screen: [wreg-fsr0h+status,2+status,0+btemp+1+pclath+cstack]
  7761                           
  7762                           
  7763                           ;washing_machine_function_def.c: 12:     for(unsigned char i=0;i<16;i++)
  7764     1798  1283               	bcf	3,5	;RP0=0, select bank0
  7765     1799  1303               	bcf	3,6	;RP1=0, select bank0
  7766     179A  01A6               	clrf	power_on_screen@i
  7767     179B                     l3426:
  7768                           
  7769                           ;washing_machine_function_def.c: 13:     {;washing_machine_function_def.c: 14:         c
      +                          lcd_putch(0xFF,(0x80 + i));
  7770     179B  0826               	movf	power_on_screen@i,w
  7771     179C  3E80               	addlw	128
  7772     179D  00A0               	movwf	clcd_putch@addr
  7773     179E  30FF               	movlw	255
  7774     179F  160A  118A  251E  160A  118A  	fcall	_clcd_putch
  7775     17A4                     l3428:
  7776                           
  7777                           ;washing_machine_function_def.c: 15:         _delay((unsigned long)((100)*(20000000/4000
      +                          000.0)));
  7778     17A4  30A5               	movlw	165
  7779     17A5  1283               	bcf	3,5	;RP0=0, select bank0
  7780     17A6  1303               	bcf	3,6	;RP1=0, select bank0
  7781     17A7  00A3               	movwf	??_power_on_screen
  7782     17A8                     u4737:
  7783     17A8  0BA3               	decfsz	??_power_on_screen,f
  7784     17A9  2FA8               	goto	u4737
  7785     17AA  2FAB               	nop2
  7786     17AB                     l3430:
  7787                           
  7788                           ;washing_machine_function_def.c: 16:     }
  7789     17AB  3001               	movlw	1
  7790     17AC  1283               	bcf	3,5	;RP0=0, select bank0
  7791     17AD  1303               	bcf	3,6	;RP1=0, select bank0
  7792     17AE  07A6               	addwf	power_on_screen@i,f
  7793     17AF                     l3432:
  7794     17AF  3010               	movlw	16
  7795     17B0  0226               	subwf	power_on_screen@i,w
  7796     17B1  1C03               	skipc
  7797     17B2  2FB4               	goto	u4391
  7798     17B3  2FB5               	goto	u4390
  7799     17B4                     u4391:
  7800     17B4  2F9B               	goto	l3426
  7801     17B5                     u4390:
  7802     17B5                     l3434:
  7803                           
  7804                           ;washing_machine_function_def.c: 18:        clcd_print("Powering on", (0xC0 + 3));
  7805     17B5  3094               	movlw	low (STR_24| (0+32768))
  7806     17B6  00A0               	movwf	clcd_print@str
  7807     17B7  3090               	movlw	high (STR_24| (0+32768))
  7808     17B8  00A1               	movwf	clcd_print@str+1
  7809     17B9  30C3               	movlw	195
  7810     17BA  00A2               	movwf	clcd_print@addr
  7811     17BB  120A  158A  2012  160A  118A  	fcall	_clcd_print
  7812                           
  7813                           ;washing_machine_function_def.c: 19:        clcd_print("Washing Machine",(0x90 + 1));
  7814     17C0  3032               	movlw	low (STR_3| (0+32768))
  7815     17C1  1283               	bcf	3,5	;RP0=0, select bank0
  7816     17C2  1303               	bcf	3,6	;RP1=0, select bank0
  7817     17C3  00A0               	movwf	clcd_print@str
  7818     17C4  3090               	movlw	high (STR_3| (0+32768))
  7819     17C5  00A1               	movwf	clcd_print@str+1
  7820     17C6  3091               	movlw	145
  7821     17C7  00A2               	movwf	clcd_print@addr
  7822     17C8  120A  158A  2012  160A  118A  	fcall	_clcd_print
  7823     17CD                     l3436:
  7824                           
  7825                           ;washing_machine_function_def.c: 20:         for(unsigned char i=0;i<16;i++)
  7826     17CD  1283               	bcf	3,5	;RP0=0, select bank0
  7827     17CE  1303               	bcf	3,6	;RP1=0, select bank0
  7828     17CF  01A7               	clrf	power_on_screen@i_172
  7829     17D0                     l3442:
  7830                           
  7831                           ;washing_machine_function_def.c: 21:     {;washing_machine_function_def.c: 22:         c
      +                          lcd_putch(0xFF,(0xD0 + i));
  7832     17D0  0827               	movf	power_on_screen@i_172,w
  7833     17D1  3ED0               	addlw	208
  7834     17D2  00A0               	movwf	clcd_putch@addr
  7835     17D3  30FF               	movlw	255
  7836     17D4  160A  118A  251E  160A  118A  	fcall	_clcd_putch
  7837     17D9                     l3444:
  7838                           
  7839                           ;washing_machine_function_def.c: 23:         _delay((unsigned long)((100)*(20000000/4000
      +                          .0)));
  7840     17D9  3003               	movlw	3
  7841     17DA  1283               	bcf	3,5	;RP0=0, select bank0
  7842     17DB  1303               	bcf	3,6	;RP1=0, select bank0
  7843     17DC  00A5               	movwf	??_power_on_screen+2
  7844     17DD  308A               	movlw	138
  7845     17DE  00A4               	movwf	??_power_on_screen+1
  7846     17DF  3055               	movlw	85
  7847     17E0  00A3               	movwf	??_power_on_screen
  7848     17E1                     u4747:
  7849     17E1  0BA3               	decfsz	??_power_on_screen,f
  7850     17E2  2FE1               	goto	u4747
  7851     17E3  0BA4               	decfsz	??_power_on_screen+1,f
  7852     17E4  2FE1               	goto	u4747
  7853     17E5  0BA5               	decfsz	??_power_on_screen+2,f
  7854     17E6  2FE1               	goto	u4747
  7855     17E7                     l3446:
  7856                           
  7857                           ;washing_machine_function_def.c: 24:     }
  7858     17E7  3001               	movlw	1
  7859     17E8  1283               	bcf	3,5	;RP0=0, select bank0
  7860     17E9  1303               	bcf	3,6	;RP1=0, select bank0
  7861     17EA  07A7               	addwf	power_on_screen@i_172,f
  7862     17EB                     l3448:
  7863     17EB  3010               	movlw	16
  7864     17EC  0227               	subwf	power_on_screen@i_172,w
  7865     17ED  1C03               	skipc
  7866     17EE  2FF0               	goto	u4401
  7867     17EF  2FF1               	goto	u4400
  7868     17F0                     u4401:
  7869     17F0  2FD0               	goto	l3442
  7870     17F1                     u4400:
  7871     17F1                     l3450:
  7872                           
  7873                           ;washing_machine_function_def.c: 25:        _delay((unsigned long)((2000)*(20000000/4000
      +                          .0)));
  7874     17F1  3033               	movlw	51
  7875     17F2  1283               	bcf	3,5	;RP0=0, select bank0
  7876     17F3  1303               	bcf	3,6	;RP1=0, select bank0
  7877     17F4  00A5               	movwf	??_power_on_screen+2
  7878     17F5  30BB               	movlw	187
  7879     17F6  00A4               	movwf	??_power_on_screen+1
  7880     17F7  30DF               	movlw	223
  7881     17F8  00A3               	movwf	??_power_on_screen
  7882     17F9                     u4757:
  7883     17F9  0BA3               	decfsz	??_power_on_screen,f
  7884     17FA  2FF9               	goto	u4757
  7885     17FB  0BA4               	decfsz	??_power_on_screen+1,f
  7886     17FC  2FF9               	goto	u4757
  7887     17FD  0BA5               	decfsz	??_power_on_screen+2,f
  7888     17FE  2FF9               	goto	u4757
  7889     17FF                     l194:
  7890     17FF  0008               	return
  7891     1800                     __end_of_power_on_screen:
  7892                           
  7893                           	psect	text19
  7894     151E                     __ptext19:	
  7895 ;; *************** function _clcd_putch *****************
  7896 ;; Defined at:
  7897 ;;		line 49 in file "clcd.c"
  7898 ;; Parameters:    Size  Location     Type
  7899 ;;  data            1    wreg     const unsigned char 
  7900 ;;  addr            1    0[BANK0 ] unsigned char 
  7901 ;; Auto vars:     Size  Location     Type
  7902 ;;  data            1    1[BANK0 ] const unsigned char 
  7903 ;; Return value:  Size  Location     Type
  7904 ;;                  1    wreg      void 
  7905 ;; Registers used:
  7906 ;;		wreg, status,2, status,0, pclath, cstack
  7907 ;; Tracked objects:
  7908 ;;		On entry : 0/0
  7909 ;;		On exit  : 0/0
  7910 ;;		Unchanged: 0/0
  7911 ;; Data sizes:     COMMON   BANK0   BANK1   BANK3   BANK2
  7912 ;;      Params:         0       1       0       0       0
  7913 ;;      Locals:         0       1       0       0       0
  7914 ;;      Temps:          0       0       0       0       0
  7915 ;;      Totals:         0       2       0       0       0
  7916 ;;Total ram usage:        2 bytes
  7917 ;; Hardware stack levels used: 1
  7918 ;; Hardware stack levels required when called: 2
  7919 ;; This function calls:
  7920 ;;		_clcd_write
  7921 ;; This function is called by:
  7922 ;;		_power_on_screen
  7923 ;;		_washing_program_display
  7924 ;;		_run_program
  7925 ;; This function uses a non-reentrant model
  7926 ;;
  7927                           
  7928     151E                     _clcd_putch:	
  7929                           ;psect for function _clcd_putch
  7930                           
  7931                           
  7932                           ;incstack = 0
  7933                           ; Regs used in _clcd_putch: [wreg+status,2+status,0+pclath+cstack]
  7934                           ;clcd_putch@data stored from wreg
  7935     151E  1283               	bcf	3,5	;RP0=0, select bank0
  7936     151F  1303               	bcf	3,6	;RP1=0, select bank0
  7937     1520  00A1               	movwf	clcd_putch@data
  7938     1521                     l3204:
  7939                           
  7940                           ;clcd.c: 49: void clcd_putch(const char data, unsigned char addr);clcd.c: 50: {;clcd.c: 
      +                          51:     clcd_write(addr, 0);
  7941     1521  01F2               	clrf	clcd_write@mode
  7942     1522  0820               	movf	clcd_putch@addr,w
  7943     1523  160A  118A  254D  160A  118A  	fcall	_clcd_write
  7944                           
  7945                           ;clcd.c: 52:     clcd_write(data, 1);
  7946     1528  01F2               	clrf	clcd_write@mode
  7947     1529  0AF2               	incf	clcd_write@mode,f
  7948     152A  1283               	bcf	3,5	;RP0=0, select bank0
  7949     152B  1303               	bcf	3,6	;RP1=0, select bank0
  7950     152C  0821               	movf	clcd_putch@data,w
  7951     152D  160A  118A  254D  160A  118A  	fcall	_clcd_write
  7952     1532                     l26:
  7953     1532  0008               	return
  7954     1533                     __end_of_clcd_putch:
  7955                           
  7956                           	psect	text20
  7957     0812                     __ptext20:	
  7958 ;; *************** function _clcd_print *****************
  7959 ;; Defined at:
  7960 ;;		line 55 in file "clcd.c"
  7961 ;; Parameters:    Size  Location     Type
  7962 ;;  str             2    0[BANK0 ] PTR const unsigned char 
  7963 ;;		 -> STR_47(16), STR_46(6), STR_45(10), STR_44(18), 
  7964 ;;		 -> STR_43(13), STR_42(14), STR_41(15), STR_40(5), 
  7965 ;;		 -> STR_39(5), STR_38(5), STR_37(6), STR_36(5), 
  7966 ;;		 -> STR_35(6), STR_34(5), STR_33(16), STR_32(6), 
  7967 ;;		 -> STR_31(10), STR_30(6), STR_29(6), STR_28(2), 
  7968 ;;		 -> STR_27(13), STR_26(16), STR_25(16), STR_24(12), 
  7969 ;;		 -> STR_23(4), STR_22(5), STR_21(7), STR_20(4), 
  7970 ;;		 -> STR_19(5), STR_18(11), STR_17(10), STR_16(9), 
  7971 ;;		 -> STR_15(10), STR_14(11), STR_13(8), STR_12(11), 
  7972 ;;		 -> STR_11(11), STR_10(7), STR_9(10), STR_8(6), 
  7973 ;;		 -> STR_7(6), STR_6(11), STR_5(12), STR_4(13), 
  7974 ;;		 -> STR_3(16), STR_2(9), STR_1(14), 
  7975 ;;  addr            1    2[BANK0 ] unsigned char 
  7976 ;; Auto vars:     Size  Location     Type
  7977 ;;		None
  7978 ;; Return value:  Size  Location     Type
  7979 ;;                  1    wreg      void 
  7980 ;; Registers used:
  7981 ;;		wreg, fsr0l, fsr0h, status,2, status,0, btemp+1, pclath, cstack
  7982 ;; Tracked objects:
  7983 ;;		On entry : 0/0
  7984 ;;		On exit  : 0/0
  7985 ;;		Unchanged: 0/0
  7986 ;; Data sizes:     COMMON   BANK0   BANK1   BANK3   BANK2
  7987 ;;      Params:         0       3       0       0       0
  7988 ;;      Locals:         0       0       0       0       0
  7989 ;;      Temps:          0       0       0       0       0
  7990 ;;      Totals:         0       3       0       0       0
  7991 ;;Total ram usage:        3 bytes
  7992 ;; Hardware stack levels used: 1
  7993 ;; Hardware stack levels required when called: 2
  7994 ;; This function calls:
  7995 ;;		_clcd_write
  7996 ;; This function is called by:
  7997 ;;		_main
  7998 ;;		_power_on_screen
  7999 ;;		_washing_program_display
  8000 ;;		_water_level_screen
  8001 ;;		_run_program
  8002 ;;		_door_status_check
  8003 ;; This function uses a non-reentrant model
  8004 ;;
  8005                           
  8006     0812                     _clcd_print:	
  8007                           ;psect for function _clcd_print
  8008                           
  8009     0812                     l3170:	
  8010                           ;incstack = 0
  8011                           ; Regs used in _clcd_print: [wreg-fsr0h+status,2+status,0+btemp+1+pclath+cstack]
  8012                           
  8013                           
  8014                           ;clcd.c: 55: void clcd_print(const char *str, unsigned char addr);clcd.c: 56: {;clcd.c: 
      +                          57:     clcd_write(addr, 0);
  8015     0812  01F2               	clrf	clcd_write@mode
  8016     0813  1283               	bcf	3,5	;RP0=0, select bank0
  8017     0814  1303               	bcf	3,6	;RP1=0, select bank0
  8018     0815  0822               	movf	clcd_print@addr,w
  8019     0816  160A  118A  254D  120A  158A  	fcall	_clcd_write
  8020                           
  8021                           ;clcd.c: 59:     while (*str != '\0')
  8022     081B  2834               	goto	l3176
  8023     081C                     l3172:
  8024                           
  8025                           ;clcd.c: 60:     {;clcd.c: 61:         clcd_write(*str, 1);
  8026     081C  01F2               	clrf	clcd_write@mode
  8027     081D  0AF2               	incf	clcd_write@mode,f
  8028     081E  0821               	movf	clcd_print@str+1,w
  8029     081F  00FF               	movwf	btemp+1
  8030     0820  0820               	movf	clcd_print@str,w
  8031     0821  0084               	movwf	4
  8032     0822  120A  158A  2000  120A  158A  	fcall	stringtab
  8033     0827  160A  118A  254D  120A  158A  	fcall	_clcd_write
  8034     082C                     l3174:
  8035                           
  8036                           ;clcd.c: 62:         str++;
  8037     082C  3001               	movlw	1
  8038     082D  1283               	bcf	3,5	;RP0=0, select bank0
  8039     082E  1303               	bcf	3,6	;RP1=0, select bank0
  8040     082F  07A0               	addwf	clcd_print@str,f
  8041     0830  1803               	skipnc
  8042     0831  0AA1               	incf	clcd_print@str+1,f
  8043     0832  3000               	movlw	0
  8044     0833  07A1               	addwf	clcd_print@str+1,f
  8045     0834                     l3176:
  8046                           
  8047                           ;clcd.c: 59:     while (*str != '\0')
  8048     0834  1283               	bcf	3,5	;RP0=0, select bank0
  8049     0835  1303               	bcf	3,6	;RP1=0, select bank0
  8050     0836  0821               	movf	clcd_print@str+1,w
  8051     0837  00FF               	movwf	btemp+1
  8052     0838  0820               	movf	clcd_print@str,w
  8053     0839  0084               	movwf	4
  8054     083A  120A  158A  2000  120A  158A  	fcall	stringtab
  8055     083F  3A00               	xorlw	0
  8056     0840  1D03               	skipz
  8057     0841  2843               	goto	u3871
  8058     0842  2844               	goto	u3870
  8059     0843                     u3871:
  8060     0843  281C               	goto	l3172
  8061     0844                     u3870:
  8062     0844                     l32:
  8063     0844  0008               	return
  8064     0845                     __end_of_clcd_print:
  8065                           
  8066                           	psect	text21
  8067     1533                     __ptext21:	
  8068 ;; *************** function _init_config *****************
  8069 ;; Defined at:
  8070 ;;		line 5 in file "main.c"
  8071 ;; Parameters:    Size  Location     Type
  8072 ;;		None
  8073 ;; Auto vars:     Size  Location     Type
  8074 ;;		None
  8075 ;; Return value:  Size  Location     Type
  8076 ;;                  1    wreg      void 
  8077 ;; Registers used:
  8078 ;;		wreg, status,2, status,0, pclath, cstack
  8079 ;; Tracked objects:
  8080 ;;		On entry : 0/0
  8081 ;;		On exit  : 0/0
  8082 ;;		Unchanged: 0/0
  8083 ;; Data sizes:     COMMON   BANK0   BANK1   BANK3   BANK2
  8084 ;;      Params:         0       0       0       0       0
  8085 ;;      Locals:         0       0       0       0       0
  8086 ;;      Temps:          0       0       0       0       0
  8087 ;;      Totals:         0       0       0       0       0
  8088 ;;Total ram usage:        0 bytes
  8089 ;; Hardware stack levels used: 1
  8090 ;; Hardware stack levels required when called: 4
  8091 ;; This function calls:
  8092 ;;		_init_clcd
  8093 ;;		_init_digital_keypad
  8094 ;;		_init_timer2
  8095 ;; This function is called by:
  8096 ;;		_main
  8097 ;; This function uses a non-reentrant model
  8098 ;;
  8099                           
  8100     1533                     _init_config:	
  8101                           ;psect for function _init_config
  8102                           
  8103     1533                     l3404:	
  8104                           ;incstack = 0
  8105                           ; Regs used in _init_config: [wreg+status,2+status,0+pclath+cstack]
  8106                           
  8107                           
  8108                           ;main.c: 6:     PEIE = 1;
  8109     1533  160A  118A  24DC  160A  118A  	fcall	_init_clcd
  8110                           
  8111                           ;main.c: 7:     TRISC1 = 0;
  8112     1538  160A  118A  24CD  160A  118A  	fcall	_init_digital_keypad
  8113     153D                     l3406:
  8114                           
  8115                           ;main.c: 8:     TRISC2 = 0;
  8116     153D  160A  118A  24D3  160A  118A  	fcall	_init_timer2
  8117     1542                     l3408:
  8118                           
  8119                           ;main.c: 9:     RC1 = 0;
  8120     1542  178B               	bsf	11,7	;volatile
  8121     1543                     l3410:
  8122                           
  8123                           ;main.c: 10:     RC2 = 0;
  8124     1543  170B               	bsf	11,6	;volatile
  8125     1544                     l3412:
  8126                           
  8127                           ;main.c: 11: 
  8128     1544  1683               	bsf	3,5	;RP0=1, select bank1
  8129     1545  1303               	bcf	3,6	;RP1=0, select bank1
  8130     1546  1087               	bcf	7,1	;volatile
  8131     1547                     l3414:
  8132                           
  8133                           ;main.c: 12: }
  8134     1547  1107               	bcf	7,2	;volatile
  8135     1548                     l3416:
  8136                           
  8137                           ;main.c: 13: 
  8138     1548  1283               	bcf	3,5	;RP0=0, select bank0
  8139     1549  1303               	bcf	3,6	;RP1=0, select bank0
  8140     154A  1087               	bcf	7,1	;volatile
  8141     154B                     l3418:
  8142                           
  8143                           ;main.c: 14: void main(void) {
  8144     154B  1107               	bcf	7,2	;volatile
  8145     154C                     l104:
  8146     154C  0008               	return
  8147     154D                     __end_of_init_config:
  8148                           
  8149                           	psect	text22
  8150     14D3                     __ptext22:	
  8151 ;; *************** function _init_timer2 *****************
  8152 ;; Defined at:
  8153 ;;		line 3 in file "timers.c"
  8154 ;; Parameters:    Size  Location     Type
  8155 ;;		None
  8156 ;; Auto vars:     Size  Location     Type
  8157 ;;		None
  8158 ;; Return value:  Size  Location     Type
  8159 ;;                  1    wreg      void 
  8160 ;; Registers used:
  8161 ;;		None
  8162 ;; Tracked objects:
  8163 ;;		On entry : 0/0
  8164 ;;		On exit  : 0/0
  8165 ;;		Unchanged: 0/0
  8166 ;; Data sizes:     COMMON   BANK0   BANK1   BANK3   BANK2
  8167 ;;      Params:         0       0       0       0       0
  8168 ;;      Locals:         0       0       0       0       0
  8169 ;;      Temps:          0       0       0       0       0
  8170 ;;      Totals:         0       0       0       0       0
  8171 ;;Total ram usage:        0 bytes
  8172 ;; Hardware stack levels used: 1
  8173 ;; Hardware stack levels required when called: 1
  8174 ;; This function calls:
  8175 ;;		Nothing
  8176 ;; This function is called by:
  8177 ;;		_init_config
  8178 ;; This function uses a non-reentrant model
  8179 ;;
  8180                           
  8181     14D3                     _init_timer2:	
  8182                           ;psect for function _init_timer2
  8183                           
  8184     14D3                     l2286:	
  8185                           ;incstack = 0
  8186                           ; Regs used in _init_timer2: []
  8187                           
  8188                           
  8189                           ;timers.c: 17:     PR2 = 250;
  8190     14D3  30FA               	movlw	250
  8191     14D4  1683               	bsf	3,5	;RP0=1, select bank1
  8192     14D5  1303               	bcf	3,6	;RP1=0, select bank1
  8193     14D6  0092               	movwf	18	;volatile
  8194                           
  8195                           ;timers.c: 18:     TMR2IE = 1;
  8196     14D7  148C               	bsf	12,1	;volatile
  8197                           
  8198                           ;timers.c: 19:     TMR2ON = 0;
  8199     14D8  1283               	bcf	3,5	;RP0=0, select bank0
  8200     14D9  1303               	bcf	3,6	;RP1=0, select bank0
  8201     14DA  1112               	bcf	18,2	;volatile
  8202     14DB                     l141:
  8203     14DB  0008               	return
  8204     14DC                     __end_of_init_timer2:
  8205                           
  8206                           	psect	text23
  8207     14CD                     __ptext23:	
  8208 ;; *************** function _init_digital_keypad *****************
  8209 ;; Defined at:
  8210 ;;		line 4 in file "digital_keypad.c"
  8211 ;; Parameters:    Size  Location     Type
  8212 ;;		None
  8213 ;; Auto vars:     Size  Location     Type
  8214 ;;		None
  8215 ;; Return value:  Size  Location     Type
  8216 ;;                  1    wreg      void 
  8217 ;; Registers used:
  8218 ;;		wreg, status,2
  8219 ;; Tracked objects:
  8220 ;;		On entry : 0/0
  8221 ;;		On exit  : 0/0
  8222 ;;		Unchanged: 0/0
  8223 ;; Data sizes:     COMMON   BANK0   BANK1   BANK3   BANK2
  8224 ;;      Params:         0       0       0       0       0
  8225 ;;      Locals:         0       0       0       0       0
  8226 ;;      Temps:          0       0       0       0       0
  8227 ;;      Totals:         0       0       0       0       0
  8228 ;;Total ram usage:        0 bytes
  8229 ;; Hardware stack levels used: 1
  8230 ;; Hardware stack levels required when called: 1
  8231 ;; This function calls:
  8232 ;;		Nothing
  8233 ;; This function is called by:
  8234 ;;		_init_config
  8235 ;; This function uses a non-reentrant model
  8236 ;;
  8237                           
  8238     14CD                     _init_digital_keypad:	
  8239                           ;psect for function _init_digital_keypad
  8240                           
  8241     14CD                     l2284:	
  8242                           ;incstack = 0
  8243                           ; Regs used in _init_digital_keypad: [wreg+status,2]
  8244                           
  8245                           
  8246                           ;digital_keypad.c: 7:     TRISB = TRISB | 0x3F;
  8247     14CD  1683               	bsf	3,5	;RP0=1, select bank1
  8248     14CE  1303               	bcf	3,6	;RP1=0, select bank1
  8249     14CF  0806               	movf	6,w	;volatile
  8250     14D0  383F               	iorlw	63
  8251     14D1  0086               	movwf	6	;volatile
  8252     14D2                     l39:
  8253     14D2  0008               	return
  8254     14D3                     __end_of_init_digital_keypad:
  8255                           
  8256                           	psect	text24
  8257     14DC                     __ptext24:	
  8258 ;; *************** function _init_clcd *****************
  8259 ;; Defined at:
  8260 ;;		line 37 in file "clcd.c"
  8261 ;; Parameters:    Size  Location     Type
  8262 ;;		None
  8263 ;; Auto vars:     Size  Location     Type
  8264 ;;		None
  8265 ;; Return value:  Size  Location     Type
  8266 ;;                  1    wreg      void 
  8267 ;; Registers used:
  8268 ;;		wreg, status,2, status,0, pclath, cstack
  8269 ;; Tracked objects:
  8270 ;;		On entry : 0/0
  8271 ;;		On exit  : 0/0
  8272 ;;		Unchanged: 0/0
  8273 ;; Data sizes:     COMMON   BANK0   BANK1   BANK3   BANK2
  8274 ;;      Params:         0       0       0       0       0
  8275 ;;      Locals:         0       0       0       0       0
  8276 ;;      Temps:          0       0       0       0       0
  8277 ;;      Totals:         0       0       0       0       0
  8278 ;;Total ram usage:        0 bytes
  8279 ;; Hardware stack levels used: 1
  8280 ;; Hardware stack levels required when called: 3
  8281 ;; This function calls:
  8282 ;;		_init_display_controller
  8283 ;; This function is called by:
  8284 ;;		_init_config
  8285 ;; This function uses a non-reentrant model
  8286 ;;
  8287                           
  8288     14DC                     _init_clcd:	
  8289                           ;psect for function _init_clcd
  8290                           
  8291     14DC                     l3196:	
  8292                           ;incstack = 0
  8293                           ; Regs used in _init_clcd: [wreg+status,2+status,0+pclath+cstack]
  8294                           
  8295                           
  8296                           ;clcd.c: 40:     TRISD = 0x00;
  8297     14DC  1683               	bsf	3,5	;RP0=1, select bank1
  8298     14DD  1303               	bcf	3,6	;RP1=0, select bank1
  8299     14DE  0188               	clrf	8	;volatile
  8300     14DF                     l3198:
  8301                           
  8302                           ;clcd.c: 43:     TRISE2 = 0;
  8303     14DF  1109               	bcf	9,2	;volatile
  8304     14E0                     l3200:
  8305                           
  8306                           ;clcd.c: 44:     TRISE1 = 0;
  8307     14E0  1089               	bcf	9,1	;volatile
  8308     14E1                     l3202:
  8309                           
  8310                           ;clcd.c: 46:     init_display_controller();
  8311     14E1  160A  118A  2629  160A  118A  	fcall	_init_display_controller
  8312     14E6                     l23:
  8313     14E6  0008               	return
  8314     14E7                     __end_of_init_clcd:
  8315                           
  8316                           	psect	text25
  8317     1629                     __ptext25:	
  8318 ;; *************** function _init_display_controller *****************
  8319 ;; Defined at:
  8320 ;;		line 16 in file "clcd.c"
  8321 ;; Parameters:    Size  Location     Type
  8322 ;;		None
  8323 ;; Auto vars:     Size  Location     Type
  8324 ;;		None
  8325 ;; Return value:  Size  Location     Type
  8326 ;;                  1    wreg      void 
  8327 ;; Registers used:
  8328 ;;		wreg, status,2, status,0, pclath, cstack
  8329 ;; Tracked objects:
  8330 ;;		On entry : 0/0
  8331 ;;		On exit  : 0/0
  8332 ;;		Unchanged: 0/0
  8333 ;; Data sizes:     COMMON   BANK0   BANK1   BANK3   BANK2
  8334 ;;      Params:         0       0       0       0       0
  8335 ;;      Locals:         0       0       0       0       0
  8336 ;;      Temps:          2       0       0       0       0
  8337 ;;      Totals:         2       0       0       0       0
  8338 ;;Total ram usage:        2 bytes
  8339 ;; Hardware stack levels used: 1
  8340 ;; Hardware stack levels required when called: 2
  8341 ;; This function calls:
  8342 ;;		_clcd_write
  8343 ;; This function is called by:
  8344 ;;		_init_clcd
  8345 ;; This function uses a non-reentrant model
  8346 ;;
  8347                           
  8348     1629                     _init_display_controller:	
  8349                           ;psect for function _init_display_controller
  8350                           
  8351     1629                     l3150:	
  8352                           ;incstack = 0
  8353                           ; Regs used in _init_display_controller: [wreg+status,2+status,0+pclath+cstack]
  8354                           
  8355                           
  8356                           ;clcd.c: 19:     _delay((unsigned long)((30)*(20000000/4000.0)));
  8357     1629  30C3               	movlw	195
  8358     162A  00F7               	movwf	??_init_display_controller+1
  8359     162B  30CD               	movlw	205
  8360     162C  00F6               	movwf	??_init_display_controller
  8361     162D                     u4767:
  8362     162D  0BF6               	decfsz	??_init_display_controller,f
  8363     162E  2E2D               	goto	u4767
  8364     162F  0BF7               	decfsz	??_init_display_controller+1,f
  8365     1630  2E2D               	goto	u4767
  8366     1631                     l3152:
  8367                           
  8368                           ;clcd.c: 22:     clcd_write(0x33, 0);
  8369     1631  01F2               	clrf	clcd_write@mode
  8370     1632  3033               	movlw	51
  8371     1633  160A  118A  254D  160A  118A  	fcall	_clcd_write
  8372     1638                     l3154:
  8373                           
  8374                           ;clcd.c: 23:     _delay((unsigned long)((4100)*(20000000/4000000.0)));
  8375     1638  301B               	movlw	27
  8376     1639  00F7               	movwf	??_init_display_controller+1
  8377     163A  309E               	movlw	158
  8378     163B  00F6               	movwf	??_init_display_controller
  8379     163C                     u4777:
  8380     163C  0BF6               	decfsz	??_init_display_controller,f
  8381     163D  2E3C               	goto	u4777
  8382     163E  0BF7               	decfsz	??_init_display_controller+1,f
  8383     163F  2E3C               	goto	u4777
  8384     1640  0000               	nop
  8385                           
  8386                           ;clcd.c: 24:     clcd_write(0x33, 0);
  8387     1641  01F2               	clrf	clcd_write@mode
  8388     1642  3033               	movlw	51
  8389     1643  160A  118A  254D  160A  118A  	fcall	_clcd_write
  8390     1648                     l3156:
  8391                           
  8392                           ;clcd.c: 25:     _delay((unsigned long)((100)*(20000000/4000000.0)));
  8393     1648  30A6               	movlw	166
  8394     1649  00F6               	movwf	??_init_display_controller
  8395     164A                     u4787:
  8396     164A  0BF6               	decfsz	??_init_display_controller,f
  8397     164B  2E4A               	goto	u4787
  8398     164C  0000               	nop
  8399     164D                     l3158:
  8400                           
  8401                           ;clcd.c: 26:     clcd_write(0x33, 0);
  8402     164D  01F2               	clrf	clcd_write@mode
  8403     164E  3033               	movlw	51
  8404     164F  160A  118A  254D  160A  118A  	fcall	_clcd_write
  8405     1654                     l3160:
  8406                           
  8407                           ;clcd.c: 27:     _delay((unsigned long)((1)*(20000000/4000000.0)));
  8408     1654  2E55               	nop2	;2 cycle nop
  8409     1655  2E56               	nop2	;2 cycle nop
  8410     1656  0000               	nop
  8411     1657                     l3162:
  8412                           
  8413                           ;clcd.c: 29:     clcd_write(0x3C, 0);
  8414     1657  01F2               	clrf	clcd_write@mode
  8415     1658  303C               	movlw	60
  8416     1659  160A  118A  254D  160A  118A  	fcall	_clcd_write
  8417     165E                     l3164:
  8418                           
  8419                           ;clcd.c: 30:     _delay((unsigned long)((100)*(20000000/4000000.0)));
  8420     165E  30A6               	movlw	166
  8421     165F  00F6               	movwf	??_init_display_controller
  8422     1660                     u4797:
  8423     1660  0BF6               	decfsz	??_init_display_controller,f
  8424     1661  2E60               	goto	u4797
  8425     1662  0000               	nop
  8426                           
  8427                           ;clcd.c: 31:     clcd_write(0x01, 0);
  8428     1663  01F2               	clrf	clcd_write@mode
  8429     1664  3001               	movlw	1
  8430     1665  160A  118A  254D  160A  118A  	fcall	_clcd_write
  8431     166A                     l3166:
  8432                           
  8433                           ;clcd.c: 32:     _delay((unsigned long)((500)*(20000000/4000000.0)));
  8434     166A  3004               	movlw	4
  8435     166B  00F7               	movwf	??_init_display_controller+1
  8436     166C  303D               	movlw	61
  8437     166D  00F6               	movwf	??_init_display_controller
  8438     166E                     u4807:
  8439     166E  0BF6               	decfsz	??_init_display_controller,f
  8440     166F  2E6E               	goto	u4807
  8441     1670  0BF7               	decfsz	??_init_display_controller+1,f
  8442     1671  2E6E               	goto	u4807
  8443     1672  2E73               	nop2
  8444     1673                     l3168:
  8445                           
  8446                           ;clcd.c: 33:     clcd_write(0x0C, 0);
  8447     1673  01F2               	clrf	clcd_write@mode
  8448     1674  300C               	movlw	12
  8449     1675  160A  118A  254D  160A  118A  	fcall	_clcd_write
  8450                           
  8451                           ;clcd.c: 34:     _delay((unsigned long)((100)*(20000000/4000000.0)));
  8452     167A  30A6               	movlw	166
  8453     167B  00F6               	movwf	??_init_display_controller
  8454     167C                     u4817:
  8455     167C  0BF6               	decfsz	??_init_display_controller,f
  8456     167D  2E7C               	goto	u4817
  8457     167E  0000               	nop
  8458     167F                     l20:
  8459     167F  0008               	return
  8460     1680                     __end_of_init_display_controller:
  8461                           
  8462                           	psect	text26
  8463     154D                     __ptext26:	
  8464 ;; *************** function _clcd_write *****************
  8465 ;; Defined at:
  8466 ;;		line 4 in file "clcd.c"
  8467 ;; Parameters:    Size  Location     Type
  8468 ;;  byte            1    wreg     unsigned char 
  8469 ;;  mode            1    2[COMMON] unsigned char 
  8470 ;; Auto vars:     Size  Location     Type
  8471 ;;  byte            1    5[COMMON] unsigned char 
  8472 ;; Return value:  Size  Location     Type
  8473 ;;                  1    wreg      void 
  8474 ;; Registers used:
  8475 ;;		wreg
  8476 ;; Tracked objects:
  8477 ;;		On entry : 0/0
  8478 ;;		On exit  : 0/0
  8479 ;;		Unchanged: 0/0
  8480 ;; Data sizes:     COMMON   BANK0   BANK1   BANK3   BANK2
  8481 ;;      Params:         1       0       0       0       0
  8482 ;;      Locals:         1       0       0       0       0
  8483 ;;      Temps:          2       0       0       0       0
  8484 ;;      Totals:         4       0       0       0       0
  8485 ;;Total ram usage:        4 bytes
  8486 ;; Hardware stack levels used: 1
  8487 ;; Hardware stack levels required when called: 1
  8488 ;; This function calls:
  8489 ;;		Nothing
  8490 ;; This function is called by:
  8491 ;;		_init_display_controller
  8492 ;;		_clcd_putch
  8493 ;;		_clcd_print
  8494 ;;		_clear_screen
  8495 ;; This function uses a non-reentrant model
  8496 ;;
  8497                           
  8498     154D                     _clcd_write:	
  8499                           ;psect for function _clcd_write
  8500                           
  8501                           
  8502                           ;incstack = 0
  8503                           ; Regs used in _clcd_write: [wreg]
  8504                           ;clcd_write@byte stored from wreg
  8505     154D  00F5               	movwf	clcd_write@byte
  8506     154E                     l3142:
  8507                           
  8508                           ;clcd.c: 4: void clcd_write(unsigned char byte, unsigned char mode);clcd.c: 5: {;clcd.c:
      +                           6:     RE2 = mode;
  8509     154E  1872               	btfsc	clcd_write@mode,0
  8510     154F  2D51               	goto	u3851
  8511     1550  2D55               	goto	u3850
  8512     1551                     u3851:
  8513     1551  1283               	bcf	3,5	;RP0=0, select bank0
  8514     1552  1303               	bcf	3,6	;RP1=0, select bank0
  8515     1553  1509               	bsf	9,2	;volatile
  8516     1554  2D58               	goto	u3864
  8517     1555                     u3850:
  8518     1555  1283               	bcf	3,5	;RP0=0, select bank0
  8519     1556  1303               	bcf	3,6	;RP1=0, select bank0
  8520     1557  1109               	bcf	9,2	;volatile
  8521     1558                     u3864:
  8522     1558                     l3144:
  8523                           
  8524                           ;clcd.c: 7:     PORTD = byte;
  8525     1558  0875               	movf	clcd_write@byte,w
  8526     1559  0088               	movwf	8	;volatile
  8527     155A                     l3146:
  8528                           
  8529                           ;clcd.c: 9:     RE1 = 1;
  8530     155A  1489               	bsf	9,1	;volatile
  8531                           
  8532                           ;clcd.c: 10:     _delay((unsigned long)((100)*(20000000/4000000.0)));
  8533     155B  30A6               	movlw	166
  8534     155C  00F3               	movwf	??_clcd_write
  8535     155D                     u4827:
  8536     155D  0BF3               	decfsz	??_clcd_write,f
  8537     155E  2D5D               	goto	u4827
  8538     155F  0000               	nop
  8539     1560                     l3148:
  8540                           
  8541                           ;clcd.c: 11:     RE1 = 0;
  8542     1560  1283               	bcf	3,5	;RP0=0, select bank0
  8543     1561  1303               	bcf	3,6	;RP1=0, select bank0
  8544     1562  1089               	bcf	9,1	;volatile
  8545                           
  8546                           ;clcd.c: 13:     _delay((unsigned long)((4100)*(20000000/4000000.0)));
  8547     1563  301B               	movlw	27
  8548     1564  00F4               	movwf	??_clcd_write+1
  8549     1565  309E               	movlw	158
  8550     1566  00F3               	movwf	??_clcd_write
  8551     1567                     u4837:
  8552     1567  0BF3               	decfsz	??_clcd_write,f
  8553     1568  2D67               	goto	u4837
  8554     1569  0BF4               	decfsz	??_clcd_write+1,f
  8555     156A  2D67               	goto	u4837
  8556     156B  0000               	nop
  8557     156C                     l17:
  8558     156C  0008               	return
  8559     156D                     __end_of_clcd_write:
  8560                           
  8561                           	psect	text27
  8562     15DC                     __ptext27:	
  8563 ;; *************** function _isr *****************
  8564 ;; Defined at:
  8565 ;;		line 6 in file "isr_1.c"
  8566 ;; Parameters:    Size  Location     Type
  8567 ;;		None
  8568 ;; Auto vars:     Size  Location     Type
  8569 ;;		None
  8570 ;; Return value:  Size  Location     Type
  8571 ;;                  1    wreg      void 
  8572 ;; Registers used:
  8573 ;;		wreg, status,2, status,0
  8574 ;; Tracked objects:
  8575 ;;		On entry : 0/0
  8576 ;;		On exit  : 0/0
  8577 ;;		Unchanged: 0/0
  8578 ;; Data sizes:     COMMON   BANK0   BANK1   BANK3   BANK2
  8579 ;;      Params:         0       0       0       0       0
  8580 ;;      Locals:         0       0       0       0       0
  8581 ;;      Temps:          2       0       0       0       0
  8582 ;;      Totals:         2       0       0       0       0
  8583 ;;Total ram usage:        2 bytes
  8584 ;; Hardware stack levels used: 1
  8585 ;; This function calls:
  8586 ;;		Nothing
  8587 ;; This function is called by:
  8588 ;;		Interrupt level 1
  8589 ;; This function uses a non-reentrant model
  8590 ;;
  8591                           
  8592     15DC                     _isr:	
  8593                           ;psect for function _isr
  8594                           
  8595     15DC                     i1l3122:
  8596                           
  8597                           ;isr_1.c: 9:     static unsigned long int count = 0;;isr_1.c: 10:     if(TMR2IF == 1)
  8598     15DC  1283               	bcf	3,5	;RP0=0, select bank0
  8599     15DD  1303               	bcf	3,6	;RP1=0, select bank0
  8600     15DE  1C8C               	btfss	12,1	;volatile
  8601     15DF  2DE1               	goto	u380_21
  8602     15E0  2DE2               	goto	u380_20
  8603     15E1                     u380_21:
  8604     15E1  2E22               	goto	i1l358
  8605     15E2                     u380_20:
  8606     15E2                     i1l3124:
  8607                           
  8608                           ;isr_1.c: 11:     {;isr_1.c: 12:         if( ++count == 20000)
  8609     15E2  3001               	movlw	1
  8610     15E3  1683               	bsf	3,5	;RP0=1, select bank1
  8611     15E4  1303               	bcf	3,6	;RP1=0, select bank1
  8612     15E5  07C2               	addwf	isr@count^(0+128),f
  8613     15E6  3000               	movlw	0
  8614     15E7  1803               	skipnc
  8615     15E8  3001               	movlw	1
  8616     15E9  07C3               	addwf	(isr@count+1)^(0+128),f
  8617     15EA  3000               	movlw	0
  8618     15EB  1803               	skipnc
  8619     15EC  3001               	movlw	1
  8620     15ED  07C4               	addwf	(isr@count+2)^(0+128),f
  8621     15EE  3000               	movlw	0
  8622     15EF  1803               	skipnc
  8623     15F0  3001               	movlw	1
  8624     15F1  07C5               	addwf	(isr@count+3)^(0+128),f
  8625     15F2  3020               	movlw	32
  8626     15F3  0642               	xorwf	isr@count^(0+128),w
  8627     15F4  304E               	movlw	78
  8628     15F5  1903               	skipnz
  8629     15F6  0643               	xorwf	(isr@count+1)^(0+128),w
  8630     15F7  0444               	iorwf	(isr@count+2)^(0+128),w
  8631     15F8  0445               	iorwf	(isr@count+3)^(0+128),w
  8632     15F9  1D03               	btfss	3,2
  8633     15FA  2DFC               	goto	u381_21
  8634     15FB  2DFD               	goto	u381_20
  8635     15FC                     u381_21:
  8636     15FC  2E1F               	goto	i1l3140
  8637     15FD                     u381_20:
  8638     15FD                     i1l3126:
  8639                           
  8640                           ;isr_1.c: 13:         {;isr_1.c: 14:             if(sec != 0)
  8641     15FD  1283               	bcf	3,5	;RP0=0, select bank0
  8642     15FE  1303               	bcf	3,6	;RP1=0, select bank0
  8643     15FF  086A               	movf	_sec,w
  8644     1600  1903               	btfsc	3,2
  8645     1601  2E03               	goto	u382_21
  8646     1602  2E04               	goto	u382_20
  8647     1603                     u382_21:
  8648     1603  2E07               	goto	i1l3130
  8649     1604                     u382_20:
  8650     1604                     i1l3128:
  8651                           
  8652                           ;isr_1.c: 15:                 sec--;
  8653     1604  3001               	movlw	1
  8654     1605  02EA               	subwf	_sec,f
  8655     1606  2E15               	goto	i1l3138
  8656     1607                     i1l3130:
  8657     1607  086A               	movf	_sec,w
  8658     1608  1D03               	btfss	3,2
  8659     1609  2E0B               	goto	u383_21
  8660     160A  2E0C               	goto	u383_20
  8661     160B                     u383_21:
  8662     160B  2E15               	goto	i1l3138
  8663     160C                     u383_20:
  8664     160C                     i1l3132:
  8665     160C  0869               	movf	_min,w
  8666     160D  1903               	btfsc	3,2
  8667     160E  2E10               	goto	u384_21
  8668     160F  2E11               	goto	u384_20
  8669     1610                     u384_21:
  8670     1610  2E15               	goto	i1l3138
  8671     1611                     u384_20:
  8672     1611                     i1l3134:
  8673                           
  8674                           ;isr_1.c: 17:             {;isr_1.c: 18:                 min--;
  8675     1611  3001               	movlw	1
  8676     1612  02E9               	subwf	_min,f
  8677     1613                     i1l3136:
  8678                           
  8679                           ;isr_1.c: 19:                 sec=60;
  8680     1613  303C               	movlw	60
  8681     1614  00EA               	movwf	_sec
  8682     1615                     i1l3138:
  8683                           
  8684                           ;isr_1.c: 22:             count = 0;
  8685     1615  3000               	movlw	0
  8686     1616  1683               	bsf	3,5	;RP0=1, select bank1
  8687     1617  1303               	bcf	3,6	;RP1=0, select bank1
  8688     1618  00C5               	movwf	(isr@count+3)^(0+128)
  8689     1619  3000               	movlw	0
  8690     161A  00C4               	movwf	(isr@count+2)^(0+128)
  8691     161B  3000               	movlw	0
  8692     161C  00C3               	movwf	(isr@count+1)^(0+128)
  8693     161D  3000               	movlw	0
  8694     161E  00C2               	movwf	isr@count^(0+128)
  8695     161F                     i1l3140:
  8696                           
  8697                           ;isr_1.c: 25:         TMR2IF = 0;
  8698     161F  1283               	bcf	3,5	;RP0=0, select bank0
  8699     1620  1303               	bcf	3,6	;RP1=0, select bank0
  8700     1621  108C               	bcf	12,1	;volatile
  8701     1622                     i1l358:
  8702     1622  0871               	movf	??_isr+1,w
  8703     1623  008A               	movwf	10
  8704     1624  0E70               	swapf	??_isr,w
  8705     1625  0083               	movwf	3
  8706     1626  0EFE               	swapf	btemp,f
  8707     1627  0E7E               	swapf	btemp,w
  8708     1628  0009               	retfie
  8709     1629                     __end_of_isr:
  8710     0002                     ___latbits      equ	2
  8711     007E                     btemp           set	126	;btemp
  8712     007E                     wtemp0          set	126
  8713                           
  8714                           	psect	intentry
  8715     0004                     __pintentry:	
  8716                           ;incstack = 0
  8717                           ; Regs used in _isr: [wreg+status,2+status,0]
  8718                           
  8719     0004                     interrupt_function:
  8720     007E                     saved_w         set	btemp
  8721     0004  00FE               	movwf	btemp
  8722     0005  0E03               	swapf	3,w
  8723     0006  00F0               	movwf	??_isr
  8724     0007  080A               	movf	10,w
  8725     0008  00F1               	movwf	??_isr+1
  8726     0009  160A  118A  2DDC   	ljmp	_isr
  8727                           
  8728                           	psect	config
  8729                           
  8730                           ;Config register CONFIG @ 0x2007
  8731                           ;	Oscillator Selection bits
  8732                           ;	FOSC = 0x3, unprogrammed default
  8733                           ;	Watchdog Timer Enable bit
  8734                           ;	WDTE = OFF, WDT disabled
  8735                           ;	Power-up Timer Enable bit
  8736                           ;	PWRTE = 0x1, unprogrammed default
  8737                           ;	Brown-out Reset Enable bit
  8738                           ;	BOREN = 0x1, unprogrammed default
  8739                           ;	Low-Voltage (Single-Supply) In-Circuit Serial Programming Enable bit
  8740                           ;	LVP = 0x1, unprogrammed default
  8741                           ;	Data EEPROM Memory Code Protection bit
  8742                           ;	CPD = 0x1, unprogrammed default
  8743                           ;	Flash Program Memory Write Enable bits
  8744                           ;	WRT = 0x3, unprogrammed default
  8745                           ;	In-Circuit Debugger Mode bit
  8746                           ;	DEBUG = 0x1, unprogrammed default
  8747                           ;	Flash Program Memory Code Protection bit
  8748                           ;	CP = 0x1, unprogrammed default
  8749     2007                     	org	8199
  8750     2007  3FFB               	dw	16379

Data Sizes:
    Strings     367
    Constant    0
    Data        38
    BSS         14
    Persistent  0
    Stack       0

Auto Spaces:
    Space          Size  Autos    Used
    COMMON           14     10      12
    BANK0            80     68      80
    BANK1            80      0      38
    BANK3            96      0       0
    BANK2            96      0       0

Pointer List with Targets:

    clcd_print@str	PTR const unsigned char  size(2) Largest target is 18
		 -> STR_1(CODE[14]), STR_10(CODE[7]), STR_11(CODE[11]), STR_12(CODE[11]), 
		 -> STR_13(CODE[8]), STR_14(CODE[11]), STR_15(CODE[10]), STR_16(CODE[9]), 
		 -> STR_17(CODE[10]), STR_18(CODE[11]), STR_19(CODE[5]), STR_2(CODE[9]), 
		 -> STR_20(CODE[4]), STR_21(CODE[7]), STR_22(CODE[5]), STR_23(CODE[4]), 
		 -> STR_24(CODE[12]), STR_25(CODE[16]), STR_26(CODE[16]), STR_27(CODE[13]), 
		 -> STR_28(CODE[2]), STR_29(CODE[6]), STR_3(CODE[16]), STR_30(CODE[6]), 
		 -> STR_31(CODE[10]), STR_32(CODE[6]), STR_33(CODE[16]), STR_34(CODE[5]), 
		 -> STR_35(CODE[6]), STR_36(CODE[5]), STR_37(CODE[6]), STR_38(CODE[5]), 
		 -> STR_39(CODE[5]), STR_4(CODE[13]), STR_40(CODE[5]), STR_41(CODE[15]), 
		 -> STR_42(CODE[14]), STR_43(CODE[13]), STR_44(CODE[18]), STR_45(CODE[10]), 
		 -> STR_46(CODE[6]), STR_47(CODE[16]), STR_5(CODE[12]), STR_6(CODE[11]), 
		 -> STR_7(CODE[6]), STR_8(CODE[6]), STR_9(CODE[10]), 

    washing_program	PTR unsigned char [12] size(2) Largest target is 11
		 -> STR_10(CODE[7]), STR_11(CODE[11]), STR_12(CODE[11]), STR_13(CODE[8]), 
		 -> STR_14(CODE[11]), STR_15(CODE[10]), STR_16(CODE[9]), STR_17(CODE[10]), 
		 -> STR_18(CODE[11]), STR_7(CODE[6]), STR_8(CODE[6]), STR_9(CODE[10]), 

    water_level	PTR unsigned char [5] size(2) Largest target is 7
		 -> STR_19(CODE[5]), STR_20(CODE[4]), STR_21(CODE[7]), STR_22(CODE[5]), 
		 -> STR_23(CODE[4]), 


Critical Paths under _main in COMMON

    _main->_water_level_screen
    _water_level_screen->___awmod
    _water_level_screen->_clear_screen
    _run_program->___awdiv
    _run_program->___xxtofl
    _door_status_check->_clear_screen
    _clear_screen->_clcd_write
    ___fltol->___xxtofl
    ___flsub->___fladd
    ___flsub->___xxtofl
    ___flmul->___xxtofl
    ___flge->___xxtofl
    _clcd_putch->___awdiv
    _clcd_print->___awmod
    _init_clcd->_init_display_controller
    _init_display_controller->_clcd_write

Critical Paths under _isr in COMMON

    None.

Critical Paths under _main in BANK0

    _main->_run_program
    _water_level_screen->_clcd_print
    _washing_program_display->_clcd_print
    _run_program->___flge
    _door_status_check->_clcd_print
    ___fltol->___flmul
    ___flsub->___flmul
    ___flmul->___xxtofl
    ___flge->___flsub
    _power_on_screen->_clcd_print

Critical Paths under _isr in BANK0

    None.

Critical Paths under _main in BANK1

    None.

Critical Paths under _isr in BANK1

    None.

Critical Paths under _main in BANK3

    None.

Critical Paths under _isr in BANK3

    None.

Critical Paths under _main in BANK2

    None.

Critical Paths under _isr in BANK2

    None.

Call Graph Tables:

 ---------------------------------------------------------------------------------
 (Depth) Function   	        Calls       Base Space   Used Autos Params    Refs
 ---------------------------------------------------------------------------------
 (0) _main                                                 3     3      0   11462
                                             65 BANK0      3     3      0
                         _clcd_print
                       _clear_screen
                        _init_config
                    _power_on_screen
                _read_digital_keypad
                        _run_program
                           _set_time
            _washing_program_display
                 _water_level_screen
 ---------------------------------------------------------------------------------
 (1) _water_level_screen                                   3     3      0    1092
                                              8 COMMON     2     2      0
                                              3 BANK0      1     1      0
                            ___awmod
                         _clcd_print
                       _clear_screen
 ---------------------------------------------------------------------------------
 (1) _washing_program_display                              3     3      0     851
                                              3 BANK0      3     3      0
                         _clcd_print
                         _clcd_putch
                       _clear_screen
 ---------------------------------------------------------------------------------
 (1) _set_time                                             0     0      0       0
 ---------------------------------------------------------------------------------
 (1) _run_program                                         13    13      0    7558
                                             52 BANK0     13    13      0
                            ___awdiv
                            ___awmod
                             ___bmul
                             ___flge
                            ___flmul
                            ___flsub
                            ___fltol
                           ___xxtofl
                         _clcd_print
                         _clcd_putch
                       _clear_screen
                  _door_status_check
 ---------------------------------------------------------------------------------
 (2) _door_status_check                                    0     0      0     576
                         _clcd_print
                       _clear_screen
 ---------------------------------------------------------------------------------
 (2) _clear_screen                                         2     2      0     111
                                              6 COMMON     2     2      0
                         _clcd_write
 ---------------------------------------------------------------------------------
 (2) ___xxtofl                                            14    10      4     342
                                              2 COMMON     8     4      4
                                              0 BANK0      6     6      0
 ---------------------------------------------------------------------------------
 (2) ___fltol                                             10     6      4     232
                                             32 BANK0     10     6      4
                            ___flmul (ARG)
                           ___xxtofl (ARG)
 ---------------------------------------------------------------------------------
 (2) ___flsub                                              8     0      8    2035
                                             32 BANK0      8     0      8
                            ___fladd
                            ___flmul (ARG)
                           ___xxtofl (ARG)
 ---------------------------------------------------------------------------------
 (3) ___fladd                                             20    12      8    1988
                                              2 COMMON     8     0      8
                                              0 BANK0     12    12      0
 ---------------------------------------------------------------------------------
 (2) ___flmul                                             26    18      8    2452
                                              6 BANK0     26    18      8
                          __Umul8_16
                           ___xxtofl (ARG)
 ---------------------------------------------------------------------------------
 (3) __Umul8_16                                            9     7      2     232
                                              2 COMMON     4     2      2
                                              0 BANK0      5     5      0
 ---------------------------------------------------------------------------------
 (2) ___flge                                              12     4      8     184
                                             40 BANK0     12     4      8
                            ___flmul (ARG)
                            ___flsub (ARG)
                           ___xxtofl (ARG)
 ---------------------------------------------------------------------------------
 (2) ___bmul                                               3     2      1     109
                                              2 COMMON     3     2      1
 ---------------------------------------------------------------------------------
 (2) ___awmod                                              6     2      4     469
                                              2 COMMON     6     2      4
 ---------------------------------------------------------------------------------
 (2) ___awdiv                                              8     4      4     308
                                              2 COMMON     8     4      4
 ---------------------------------------------------------------------------------
 (1) _read_digital_keypad                                  3     3      0      98
                                              2 COMMON     3     3      0
 ---------------------------------------------------------------------------------
 (1) _power_on_screen                                      5     5      0     891
                                              3 BANK0      5     5      0
                         _clcd_print
                         _clcd_putch
 ---------------------------------------------------------------------------------
 (2) _clcd_putch                                           2     1      1     228
                                              0 BANK0      2     1      1
                            ___awdiv (ARG)
                            ___awmod (ARG)
                         _clcd_write
 ---------------------------------------------------------------------------------
 (2) _clcd_print                                           3     0      3     465
                                              0 BANK0      3     0      3
                            ___awmod (ARG)
                         _clcd_write
 ---------------------------------------------------------------------------------
 (1) _init_config                                          0     0      0     111
                          _init_clcd
                _init_digital_keypad
                        _init_timer2
 ---------------------------------------------------------------------------------
 (2) _init_timer2                                          0     0      0       0
 ---------------------------------------------------------------------------------
 (2) _init_digital_keypad                                  0     0      0       0
 ---------------------------------------------------------------------------------
 (2) _init_clcd                                            0     0      0     111
            _init_display_controller
 ---------------------------------------------------------------------------------
 (3) _init_display_controller                              2     2      0     111
                                              6 COMMON     2     2      0
                         _clcd_write
 ---------------------------------------------------------------------------------
 (3) _clcd_write                                           4     3      1     111
                                              2 COMMON     4     3      1
 ---------------------------------------------------------------------------------
 Estimated maximum stack depth 3
 ---------------------------------------------------------------------------------
 (Depth) Function   	        Calls       Base Space   Used Autos Params    Refs
 ---------------------------------------------------------------------------------
 (5) _isr                                                  2     2      0       0
                                              0 COMMON     2     2      0
 ---------------------------------------------------------------------------------
 Estimated maximum stack depth 5
 ---------------------------------------------------------------------------------

 Call Graph Graphs:

 _main (ROOT)
   _clcd_print
     ___awmod (ARG)
     _clcd_write (ARG)
   _clear_screen
     _clcd_write
   _init_config
     _init_clcd
       _init_display_controller
         _clcd_write
     _init_digital_keypad
     _init_timer2
   _power_on_screen
     _clcd_print
     _clcd_putch
       ___awdiv (ARG)
       ___awmod (ARG)
       _clcd_write (ARG)
   _read_digital_keypad
   _run_program
     ___awdiv
     ___awmod
     ___bmul
     ___flge
       ___flmul (ARG)
         __Umul8_16
         ___xxtofl (ARG)
       ___flsub (ARG)
         ___fladd
         ___flmul (ARG)
         ___xxtofl (ARG)
       ___xxtofl (ARG)
     ___flmul
     ___flsub
     ___fltol
       ___flmul (ARG)
       ___xxtofl (ARG)
     ___xxtofl
     _clcd_print
     _clcd_putch
     _clear_screen
     _door_status_check
       _clcd_print
       _clear_screen
   _set_time
   _washing_program_display
     _clcd_print
     _clcd_putch
     _clear_screen
   _water_level_screen
     ___awmod
     _clcd_print
     _clear_screen

 _isr (ROOT)

Address spaces:
Name               Size   Autos  Total    Usage
BANK3               96      0       0      0.0%
BITBANK3            96      0       0      0.0%
BANK2               96      0       0      0.0%
BITBANK2            96      0       0      0.0%
BANK1               80      0      38     47.5%
BITBANK1            80      0       0      0.0%
BANK0               80     68      80    100.0%
BITBANK0            80      0       0      0.0%
COMMON              14     10      12     85.7%
BITCOMMON           14      0       0      0.0%
DATA                 0      0     132      0.0%
STACK                0      0       0      0.0%


Microchip Technology PIC Macro Assembler V3.00 build 20241204225717 
Symbol Table                                                                                   Wed Jun 25 17:21:18 2025

                              pc 0002                   ___bmul@product 0073                   clcd_print@addr 0022  
                             l20 167F                               l23 14E6                               l32 0844  
                             l17 156C                               l26 1532                               l52 08B2  
                             l53 088E                               l39 14D2                     ___awdiv@sign 0077  
                             fsr 0004              __Umul8_16@word_mpld 0022                              l104 154C  
                            l211 09C8                              l123 0B66                              l141 14DB  
                            l205 0C6E                              l117 0B2A                              l311 0D48  
                            l304 0D33                              l240 0C76                              l330 0DAF  
                            l235 0C70                              l340 14F7                              l229 0403  
                            l334 16FF                              l318 0D60                              l270 0CD6  
                            l262 0CC0                              l238 0C73                              l327 0D75  
                            l336 1705                              l272 0CD6                              l264 0CC0  
                            l337 1734                              l194 17FF                              l610 16D6  
                            l470 150A                              l630 0A6C                              l622 09E7  
                            l294 0D19                              l287 0D01                              l625 0A53  
                            l740 0DDC                              l645 0913                              l638 0928  
                            l751 0E67                              l648 0928                              l841 0745  
                            l745 0E0D                              l770 0F76                              l860 15C9  
                            l597 1797                              l853 073B                              l749 0E8C  
                            l862 15DB                              l766 0F52                              l758 0FFF  
                            l847 06B7                              l791 15B2                              l776 0F99  
                            l787 0FF5                              l779 0FD5                              l891 07A9  
                            l788 0FFF                              l885 076A                              l886 077B  
                            l887 07FB                              l898 07C5                              l899 07D1  
                            _GIE 005F                              _RB0 0030                              _RC1 0039  
                            _RC2 003A                              _RE1 0049                              _RE2 004A  
                            _PR2 0092                              _min 0069                              _sec 006A  
                            _isr 15DC                   clcd_putch@addr 0020                              fsr0 0004  
                 clcd_putch@data 0021                              indf 0000                     ___awmod@sign 0077  
                   ___flmul@aexp 0034                     ___flmul@bexp 0039                     ___flmul@sign 0033  
                   ___flmul@temp 003E                     ___flmul@prod 003A                      _run_program 0046  
                   ___fltol@exp1 0049                             l2100 0DFA                             l2110 0E17  
                           l2102 0E02                             l2200 0F5A                             l2120 0E21  
                           l2112 0E19                             l2104 0E03                             l2210 0F75  
                           l2202 0F5F                             l2130 0E2B                             l2122 0E23  
                           l2114 0E1B                             l2106 0E05                             l2212 0F7A  
                           l2220 0F87                             l2140 0E35                             l2132 0E2D  
                           l2124 0E25                             l2116 0E1D                             l2108 0E13  
                           l2310 14FE                             l2214 0F7E                             l2206 0F68  
                           l2222 0F8B                             l2150 0E72                             l2134 0E2F  
                           l2126 0E27                             l2118 0E1F                             l2142 0E37  
                           l2070 0DBE                             l2062 0DB0                             l3200 14E0  
                           l2320 1735                             l2312 1500                             l2240 0FD3  
                           l2232 0F9E                             l2224 0F8C                             l2216 0F80  
                           l2208 0F71                             l2152 0E74                             l2160 0E84  
                           l2144 0E38                             l2136 0E31                             l2128 0E29  
                           l2080 0DD2                             l2072 0DBF                             l2064 0DB4  
          ??_read_digital_keypad 0072                             l3202 14E1                             l2330 1745  
                           l2322 1736                             l2314 1502                             l2306 14F9  
                           l2410 0A07                             l2402 09C9                             l2250 0FED  
                           l2242 0FDA                             l2234 0FA3                             l2226 0F90  
                           l2218 0F85                             l2170 0EB5                             l2162 0E90  
                           l2154 0E78                             l2146 0E4F                             l2138 0E33  
                           l2090 0DE7                             l2074 0DC4                             l2082 0DD4  
                           l2066 0DB6                             l3210 16E0                             l3204 1521  
                           l2340 1757                             l2332 174A                             l2324 173A  
                           l2316 1509                             l2308 14FA                             l2412 0A2B  
                           l2404 09DF                             l3300 0457                             l2252 0FF1  
                           l2244 0FDF                             l2236 0FB1                             l2228 0F96  
                           l2180 0ECA                             l2172 0EB9                             l2164 0E95  
                           l2156 0E79                             l2148 0E6B                             l2092 0DEB  
                           l2084 0DDE                             l2076 0DC9                             l2068 0DBA  
                           l3220 171A                             l3212 16E5                             l3142 154E  
                           l3150 1629                             l2350 177B                             l2342 175E  
                           l2334 174C                             l2326 173F                             l3230 168A  
                           l2414 0A2F                             l2406 09FB                             l3310 0478  
                           l3302 045C                             l2254 0FF3                             l2246 0FE7  
                           l2238 0FB5                             l2190 0F2B                             l2182 0ECB  
                           l2174 0EBD                             l2158 0E82                             l2094 0DEF  
                           l2086 0DE0                             l2078 0DD1                             l2430 08DA  
                           l2422 08B3                             l3222 1727                             l3214 16F2  
                           l3206 16D7                             l3144 1558                             l3160 1654  
                           l3152 1631                             l2360 1793                             l2352 177C  
                           l2344 1760                             l2336 174E                             l2328 1741  
                           l3240 169E                             l3232 168C                             l3224 1680  
                           l2416 0A69                             l2408 0A03                             l3400 073D  
                           l3320 0502                             l3312 0485                             l3304 0461  
                           l2256 0FFA                             l2248 0FEC                             l2192 0F2D  
                           l2184 0ED4                             l2176 0EC4                             l2168 0E9E  
                           l2096 0DF0                             l2088 0DE6                             l2432 08DB  
                           l2424 08BE                             l3216 1708                             l3208 16DD  
                           l3146 155A                             l3162 1657                             l3154 1638  
                           l3410 1543                             l3170 0812                             l2354 1783  
                           l2346 1764                             l2338 1754                             l3250 16BB  
                           l3242 16A5                             l3234 1690                             l3226 1681  
                           l2418 0A6B                             l3330 0560                             l3322 051E  
                           l3314 04A0                             l2258 0FFE                             l2194 0F30  
                           l2178 0EC6                             l2186 0ED7                             l2098 0DF5  
                           l2434 08E3                             l2610 0752                             l3218 170D  
                           l3148 1560                             l3164 165E                             l3156 1648  
                           l2284 14CD                             l3412 1544                             l3404 1533  
                           l3172 081C                             l3420 1798                             l2700 0896  
                           l2348 1775                             l2356 1789                             l3252 16C2  
                           l3244 16A7                             l3236 1695                             l3228 1685  
                           l3340 05EA                             l3332 057D                             l3324 0527  
                           l3316 04BC                             l3308 046A                             l2196 0F35  
                           l2188 0EED                             l2460 1593                             l2452 0908  
                           l2444 08F1                             l2436 08E5                             l2428 08C7  
                           l2620 0789                             l2612 0762                             l3180 14EE  
                           l3500 094F                             l3166 166A                             l3158 164D  
                           l2286 14D3                             l3414 1547                             l3406 153D  
                           l3174 082C                             l3430 17AB                             l2702 089F  
                           l2358 178E                             l3246 16AB                             l3238 169B  
                           l3254 16C8                             l3190 15D2                             l3182 15B6  
                           l3350 067A                             l3342 0615                             l3334 0594  
                           l3326 0535                             l3318 04E6                             l3270 0412  
                           l3262 0404                             l2198 0F44                             l2454 0918  
                           l2438 08E9                             l2446 0901                             l2630 07BB  
                           l2622 0790                             l2614 0772                             l2606 0749  
                           l3510 0049                             l3502 095C                             l3168 1673  
                           l3416 1548                             l3408 1542                             l3176 0834  
                           l3432 17AF                             l2704 08A4                             l2712 08A6  
                           l3256 16CD                             l3248 16B5                             l3192 15D7  
                           l3184 15B8                             l3352 0683                             l3360 0697  
                           l3344 063B                             l3336 05B1                             l3328 0552  
                           l3280 0427                             l3272 0413                             l3264 0408  
                           l2456 091D                             l2640 07EE                             l2632 07BF  
                           l2624 0792                             l2608 074E                             l3600 03C1  
                           l3520 007D                             l3512 004E                             l2800 0CAF  
                           l3504 0969                             l3418 154B                             l3450 17F1  
                           l3442 17D0                             l3434 17B5                             l3426 179B  
                           l2714 08AF                             l2650 084A                             l3258 16D2  
                           l3186 15BF                             l3362 069B                             l3354 0687  
                           l3346 0663                             l3338 05DC                             l3290 043B  
                           l3282 042F                             l3274 0418                             l3266 040A  
                           l2458 158F                             l2642 07F2                             l2634 07C9  
                           l2626 07A0                             l2618 077E                             l3178 14E7  
                           l3610 03DA                             l3602 03C6                             l3530 00E5  
                           l3522 008A                             l3514 0056                             l3506 097E  
                           l3196 14DC                             l3444 17D9                             l3436 17CD  
                           l3428 17A4                             l2716 08B1                             l2660 085A  
                           l2652 084C                             l3188 15C3                             l3380 06EC  
                           l3372 06BC                             l3364 069C                             l3356 0688  
                           l3348 066C                             l3292 0440                             l3284 0432  
                           l3276 041D                             l3268 040E                             l2644 07F3  
                           l2636 07D3                             l2628 07B0                             l3620 0400  
                           l3612 03E7                             l3604 03CB                             l3540 0124  
                           l3532 0100                             l3524 00A5                             l3516 005B  
                           l2820 0CF0                             l2804 0CC5                             l3460 0B82  
                           l3452 0B6D                             l3508 09A3                             l3198 14DF  
                           l3446 17E7                             l2670 086F                             l2654 0852  
                           l2662 085C                             l3390 0723                             l3374 06C1  
                           l3382 06F2                             l3366 06A0                             l3358 0691  
                           l3294 0445                             l3286 0436                             l3278 0425  
                           l2638 07E9                             l3614 03F5                             l3606 03CE  
                           l3550 01C7                             l3542 0131                             l3534 0104  
                           l3526 00C0                             l3518 0068                             l2830 0D16  
                           l2822 0D01                             l2814 0CEC                             l3470 0B9D  
                           l3462 0B87                             l3454 0B73                             l3630 0A99  
                           l3622 0A6D                             l3448 17EB                             l2680 087F  
                           l2664 0862                             l2656 0857                             l2648 0846  
                           l3392 0725                             l3384 06FF                             l3376 06CF  
                           l3368 06B4                             l3296 044D                             l3288 043A  
                           l3616 03F9                             l3608 03CF                             l3560 0210  
                           l3552 0204                             l3544 013E                             l3536 0112  
                           l3528 00CA                             l2832 0D17                             l2824 0D02  
                           l2816 0CED                             l2808 0CDB                             l3480 0C2F  
                           l3472 0BA7                             l3464 0B8B                             l3456 0B78  
                           l3640 0ABB                             l3632 0AA4                             l3624 0A72  
                           l2682 0884                             l2666 0867                             l2674 0871  
                           l2658 0858                             l3394 0731                             l3386 070A  
                           l3378 06D3                             l3298 044F                             l3618 03FB  
                           l3570 0263                             l3562 021C                             l3554 0205  
                           l3546 014D                             l3538 0117                             l2842 0D1F  
                           l2834 0D1A                             l3482 0C35                             l3474 0BAF  
                           l3466 0B91                             l3458 0B7C                             l3490 093B  
                           l3650 0ADF                             l3642 0AC9                             l3634 0AA9  
                           l3626 0A7F                             l2684 088A                             l2676 0876  
                           l2668 0869                             l2692 088E                             l3396 0735  
                           l3388 0719                             l3580 0319                             l3572 0271  
                           l3564 0222                             l3548 018A                             l3556 0206  
                           l2860 0D4C                             l2852 0D37                             l2844 0D30  
                           l2836 0D1C                             l2828 0D05                             l2780 0C8F  
                           l2772 0C79                             l3476 0BED                             l3468 0B92  
                           l3492 0941                             l3484 092C                             l3660 0B06  
                           l3652 0AE5                             l3644 0ACF                             l3636 0AAE  
                           l3628 0A8C                             l2694 0893                             l2686 088A  
                           l2678 087C                             l3398 0736                             l3590 035F  
                           l3582 0327                             l3566 0237                             l3574 027F  
                           l3558 020C                             l2862 0D5D                             l2854 0D48  
                           l2846 0D31                             l2790 0CA7                             l2782 0C92  
                           l2774 0C8A                             l3478 0BF3                             l3494 0946  
                           l3486 0932                             l3670 0B2B                             l3662 0B13  
                           l3654 0AE7                             l3646 0AD4                             l3638 0AB7  
                           l2688 088C                             l3592 037A                             l3584 032D  
                           l3576 0285                             l3568 0245                             l2880 0D76  
                           l2872 0D64                             l2864 0D5E                             l2856 0D49  
                           l2848 0D34                             l2792 0CA8                             l2784 0C93  
                           l2776 0C8B                             l2768 0C6F                             l3496 0948  
                           l3488 0937                             l3680 0B4A                             l3672 0B32  
                           l3656 0AEC                             l3664 0B19                             l3648 0AD9  
                           l3594 0384                             l3586 0339                             l3578 030B  
                           l2866 0D61                             l2794 0CAB                             l2778 0C8E  
                           l3498 094E                             l3682 0B4F                             l3674 0B39  
                           l3666 0B1F                             l3658 0AF9                             l3596 039F  
                           l3588 0344                             l2796 0CAC                             l2788 0C96  
                           l2884 0D87                             l3676 0B3F                             l3668 0B25  
                           l3598 03BA                             l3678 0B44                             l3686 0B56  
                           ?_isr 0070                             STR_1 105F                             STR_2 1114  
                           STR_3 1032                             STR_4 1087                             STR_5 10A0  
                           STR_6 10D8                             STR_7 1145                             STR_8 114B  
                           STR_9 10ED                             u2000 0DEF                             u2001 0DEE  
                           u2010 0DF5                             u2011 0DF4                             u2020 0DFA  
                           u2021 0DF9                             u2110 0E8C                             u2030 0E13  
                           u2111 0E8B                             u2031 0E12                             u2120 0E90  
                           u2040 0E17                             u2201 0F04                             u2121 0E8F  
                           u2105 0E7B                             u2041 0E16                             u2210 0F18  
                           u2202 0F05                             u2130 0E95                             u2050 0E4F  
                           u2211 0F19                             u2203 0F0A                             u2131 0E94  
                           u2051 0E4E                             u2300 0F90                             u2220 0F35  
                           u2212 0F1E                             u2204 0F0B                             u2060 0E58  
                           u2301 0F8F                             u2221 0F34                             u2213 0F1F  
                           u2205 0F10                             u2141 0EA7                             u2061 0E56  
                           u2310 0F96                             u2230 0F5A                             u2206 0F11  
                           u2150 0EB9                             u2142 0EAE                             u2070 0E59  
                           u2311 0F95                             u2231 0F59                             u2151 0EB8  
                           u2143 0EB5                             u2055 0E4B                             u4000 16C8  
                           u2400 0FF1                             u2320 0F9D                             u2240 0F5F  
                           u2160 0EBD                             u2080 0E6B                             u4001 16C7  
                           u2401 0FF0                             u2321 0F9C                             u2241 0F5E  
                           u2161 0EBC                             u2081 0E6A                             u4010 16CD  
                           u2410 0FFE                             u2330 0FA3                             u2170 0ECA  
                           u2090 0E78                             u4011 16CC                             u2411 0FFD  
                           u2331 0FA2                             u2171 0EC9                             u2091 0E77  
                           u2500 1745                             u4020 0412                             u2340 0FB5  
                           u2260 0F75                             u3300 07BF                             u3220 074E  
                           u2501 1744                             u4101 04AE                             u4021 0411  
                           u2341 0FB4                             u2261 0F74                             u3301 07BE  
                           u3221 074D                             u2510 1754                             u4102 04B5  
                           u4030 0418                             u2350 0FC4                             u2270 0F7A  
                           u2190 0EED                             u3310 07C5                             u3230 0752  
                           u2511 1753                             u4111 04CA                             u4103 04BC  
                           u4031 0417                             u2271 0F79                             u2255 0F6A  
                           u2191 0EEC                             u3311 07C4                             u3231 0751  
                           u3400 086F                             u4112 04D1                             u4040 041D  
                           u2360 0FD3                             u2280 0F85                             u3320 07C9  
                           u3240 0772                             u3401 086E                             u4201 05F9  
                           u4121 04F4                             u4113 04D8                             u4041 041C  
                           u2361 0FD2                             u2281 0F84                             u2193 0EE9  
                           u2185 0ECD                             u3321 07C8                             u3241 0771  
                           u3410 0876                             u2530 1764                             u4210 0621  
                           u4202 0600                             u4122 04FB                             u4050 043A  
                           u2370 0FDA                             u2290 0F8B                             u3330 07DE  
                           u3411 0875                             u2531 1763                             u4203 0607  
                           u4131 0510                             u4123 0502                             u4051 0439  
                           u2371 0FD9                             u2355 0FBF                             u2291 0F8A  
                           u3420 087C                             u2700 0A07                             u4300 06A0  
                           u4132 0517                             u4060 0440                             u2380 0FDF  
                           u3340 07EE                             u3260 078F                             u3421 087B  
                           u2525 1758                             u2701 0A06                             u4301 069F  
                           u4221 062D                             u4133 051E                             u4061 043F  
                           u2381 0FDE                             u3341 07ED                             u3261 078E  
                           u3430 0884                             u2550 1775                             u2470 14FE  
                           u4310 06B4                             u4230 0649                             u4222 0634  
                           u4070 0445                             u2390 0FEC                             u3350 07F2  
                           u3431 0883                             u2551 1774                             u2471 14FD  
                           u2711 0A16                             u4311 06B3                             u4223 063B  
                           u4215 061C                             u4151 0544                             u4071 0444  
                           u2391 0FEB                             u3351 07F1                             u3335 07D9  
                           u3255 0781                             u4400 17F1                             u3440 088A  
                           u3360 0852                             u2480 1509                             u2720 0A2F  
                           u2712 0A17                             u4320 06BB                             u4152 054B  
                           u4080 045C                             u2800 0900                             u3280 07AF  
                           u4401 17F0                             u3441 0889                             u3361 0851  
                           u2545 1765                             u2481 1508                             u2721 0A2E  
                           u2713 0A1C                             u4321 06BA                             u4241 0655  
                           u4161 056F                             u4153 0552                             u4145 0520  
                           u4081 045B                             u2801 08FF                             u3281 07AE  
                           u3450 0893                             u3370 0857                             u2570 1789  
                           u2490 173A                             u2714 0A1D                             u4330 06C1  
                           u4242 065C                             u4162 0576                             u4090 0461  
                           u2810 0907                             u4410 0B73                             u3451 0892  
                           u3371 0856                             u2571 1788                             u2555 1771  
                           u2491 1739                             u2731 0A3E                             u2715 0A22  
                           u4331 06C0                             u4243 0663                             u4235 0644  
                           u4163 057D                             u4091 0460                             u2811 0906  
                           u3275 07A1                             u4411 0B72                             u3460 089F  
                           u3380 0862                             u2580 178E                             u2740 0A69  
                           u2732 0A3F                             u2716 0A23                             u4340 06D3  
                           u4500 0056                             u4420 0B82                             u3461 089E  
                           u3381 0861                             u2581 178D                             u2565 177D  
                           u2741 0A68                             u2733 0A44                             u4341 06D2  
                           u4181 05A3                             u4501 0055                             u4421 0B81  
                           u3470 08A4                             u3390 0867                             u2734 0A45  
                           u4350 06E2                             u4270 0687                             u4182 05AA  
                           u2830 0918                             u2750 08BE                             u4510 020C  
                           u4430 0B91                             u3471 08A3                             u3391 0866  
                           u2735 0A4A                             u4271 0686                             u4255 0665  
                           u4191 05CE                             u4183 05B1                             u4175 057F  
                           u2831 0917                             u2751 08BD                             u3295 07B4  
                           u4511 020B                             u4431 0B90                             u3480 08AF  
                           u2736 0A4B                             u2680 09DF                             u4360 06FF  
                           u4192 05D5                             u1960 0DBE                             u2840 091D  
                           u2760 08D5                             u4520 0222                             u4440 0BAF  
                           u4600 0AA4                             u3481 08AE                             u2745 0A65  
                           u2681 09DE                             u4361 06FE                             u4265 067C  
                           u4193 05DC                             u1961 0DBD                             u2841 091C  
                           u2825 090A                             u4521 0221                             u4441 0BAE  
                           u4601 0AA3                             u2690 09FB                             u4370 0719  
                           u4290 069B                             u1970 0DC4                             u2770 08E9  
                           u4530 0237                             u4450 0BF3                             u4610 0AC9  
                           u2691 09FA                             u4371 0718                             u4355 06DD  
                           u4291 069A                             u1971 0DC3                             u2771 08E8  
                           u4531 0236                             u4451 0BF2                             u4611 0AC8  
                           _PEIE 005E                             u3900 15D7                             u4380 0735  
                           u1980 0DC9                             u2780 08F0                             u4540 0263  
                           u4460 0C35                             u4620 0ACF                             u3901 15D6  
                           u4381 0734                             u4365 06FB                             u4285 068A  
                           u1981 0DC8                             u2781 08EF                             u2765 08D0  
                           u4541 0262                             u4461 0C34                             u4621 0ACE  
                           u4390 17B5                             u1990 0DE6                             u3910 16DD  
                           u4550 0285                             u4470 0932                             u4630 0AD4  
                           u4391 17B4                             u4375 0715                             u1991 0DE5  
                           u3911 16DC                             u4551 0284                             u4535 0233  
                           u4471 0931                             u4631 0AD3                             u3920 1705  
                           u4560 030B                             u4480 0941                             u4640 0ADF  
                           u3921 1704                             u4561 030A                             u4545 025F  
                           u4481 0940                             u4641 0ADE                             u3850 1555  
                           u3930 1685                             u4570 032D                             u4490 094E  
                           u4650 0AE5                             u3851 1551                             u3931 1684  
                           u2795 08F2                             u4571 032C                             u4707 010C  
                           u4491 094D                             u4651 0AE4                             u3940 1690  
                           u4580 03C1                             u4660 0B1F                             u3941 168F  
                           u4717 03EF                             u4581 03C0                             u4661 0B1E  
                           u3870 0844                             u3950 169B                             u4590 03C6  
                           u4670 0B25                             u4807 166E                             u3871 0843  
                           u3951 169A                             u4727 14F2                             u4591 03C5  
                           u4671 0B24                             u3864 1558                             u3880 15C3  
                           u4680 0B3F                             u4817 167C                             u4737 17A8  
                           u3881 15C2                             u4681 0B3E                             u3970 16AB  
                           u4690 0B4A                             u4827 155D                             u4747 17E1  
                           u3971 16AA                             u4691 0B49                             u3980 16B5  
                           u4837 1567                             u4757 17F9                             u3981 16B4  
                           u3965 169F                             u4767 162D                             u3895 15CA  
                           u4777 163C                             u3985 16B1                             u4787 164A  
                           u3995 16BC                             u4797 1660    read_digital_keypad@long_press 006F  
                           _main 0A6D                             _time 0064                             btemp 007E  
                           start 000C                ___bmul@multiplier 0074                   clcd_write@byte 0075  
                 clcd_write@mode 0072          __end_of_power_on_screen 1800        ??_washing_program_display 0023  
                          ??_isr 0070                    ___fltol@sign1 0048                  __end_of___fladd 1000  
                          ?_main 0070                  __end_of___awdiv 1798                            STR_10 112C  
                          STR_11 10B7                            STR_20 1165                            STR_12 10C2  
                          STR_21 1125                            STR_13 111D                            STR_30 1133  
                          STR_22 1151                            STR_14 10CD                            STR_31 10E3  
                          STR_23 1169                            STR_15 1101                            STR_32 1133  
                          STR_40 1156                            STR_24 1094                            STR_16 110B  
                          STR_25 1032                            STR_41 1042                            STR_33 1012  
                          STR_17 10F7                            STR_34 1156                            STR_42 1051  
                          STR_26 1022                            STR_18 10AC                            STR_35 113F  
                          STR_43 107A                            STR_27 106D                            STR_19 1160  
                          STR_28 116D                            STR_36 115B                            STR_44 1000  
                __end_of___awmod 16D7                            STR_45 10E3                            STR_37 113F  
                          STR_29 1139                            STR_46 1133                            STR_38 115B  
                          STR_47 1012                            STR_39 115B                  __end_of___flmul 0746  
                __end_of___flsub 15B3                  __end_of___fltol 0929                  ___awdiv@divisor 0072  
                          i1l358 1622                     ?_init_config 0070                  ___awdiv@counter 0076  
                          _PORTB 0006                            _PORTD 0008                            _TRISB 0086  
                          _TRISD 0088                     ?_init_timer2 0070             __end_of_clear_screen 14F8  
                          _level 007A                            pclath 000A                            status 0003  
                          wtemp0 007E                  __initialization 000F                     __end_of_main 0B6A  
                         ??_main 007A                   run_program@key 0060  __end_of_washing_program_display 0C6F  
               ___awdiv@dividend 0074                           i1l3130 1607                           i1l3122 15DC  
                         i1l3132 160C                           i1l3140 161F                           i1l3124 15E2  
                         i1l3134 1611                           i1l3126 15FD                           i1l3136 1613  
                         i1l3128 1604                           i1l3138 1615                           u380_20 15E2  
                         u380_21 15E1                           u381_20 15FD                           u381_21 15FC  
                         u382_20 1604                           u382_21 1603                           u383_20 160C  
                         u383_21 160B                           u384_20 1611                           u384_21 1610  
                         _TMR2IE 0461                           _TMR2IF 0061                           _TMR2ON 0092  
                         _TRISC1 0439                           _TRISC2 043A                           _TRISE1 0449  
                         _TRISE2 044A                 __end_of___xxtofl 07FC      __end_of_init_digital_keypad 14D3  
                         ___flge 09C9                           ___bmul 14F8          _init_display_controller 1629  
                      ??___fladd 0020                        ??___awdiv 0076                 ?_power_on_screen 0070  
                      ??___awmod 0076                        ??___flmul 002E                        ??___flsub 007A  
                      ??___fltol 0044                 ___awdiv@quotient 0078                  ___awmod@divisor 0072  
                ___awmod@counter 0076                     __pdataCOMMON 007B                 __end_of_set_time 0DB0  
                         saved_w 007E                       ___flge@ff1 0048                       ___flge@ff2 004C  
                   ___xxtofl@arg 0022                     ___xxtofl@exp 0021                     ___xxtofl@val 0072  
        __end_of__initialization 0042                       ___fltol@f1 0040              ___bmul@multiplicand 0072  
                 __pcstackCOMMON 0070                     __pidataBANK0 07FC                     __pidataBANK1 156D  
                   ?_run_program 0070                       __pbssBANK0 0064                       __pbssBANK1 00C2  
      ??_init_display_controller 0076                       _clcd_print 0812                       _clcd_putch 151E  
                     _clcd_write 154D                __end_of__Umul8_16 15DC                       __pmaintext 0A6D  
                   _clear_screen 14E7                          ?___flge 0048                          ?___bmul 0072  
                     __pintentry 0004      __end_of_read_digital_keypad 08B3                        ?___xxtofl 0072  
                     __stringtab 0800                        ?_set_time 0070                          ___fladd 0DB0  
                        ___awdiv 1735                          ___awmod 1680                          ___flmul 0404  
                        ___flsub 158F                          ___fltol 08B3                          __ptext1 0929  
                        __ptext2 0B6A                          __ptext3 0C6F                          __ptext4 0046  
                        __ptext5 16D7                          __ptext6 14E7                          __ptext7 0746  
                        __ptext8 08B3                          __ptext9 158F  __end_of_init_display_controller 1680  
              __end_of_init_clcd 14E7           read_digital_keypad@key 0074                       ??___xxtofl 0076  
               ___awmod@dividend 0074                          main@key 0063             end_of_initialization 0042  
                    ?_clcd_print 0020                      ?_clcd_putch 0020                      ?_clcd_write 0072  
       ?_washing_program_display 0070                       _reset_flag 006D                       ??_set_time 0072  
                   __pstringtext 1000                       _rinse_time 0066                      ___fladd@grs 002B  
     washing_program_display@key 0025                       _program_no 006B                    ___xxtofl@sign 0020  
                  clcd_print@str 0020                      ___flmul@grs 0035                       _total_time 0068  
                 __end_of___flge 0A6D                   __end_of___bmul 150B                    __pidataCOMMON 07FF  
            start_initialization 000F                      __end_of_isr 1629            water_level_screen@key 0023  
                       ??___flge 0050                         ??___bmul 0073                       init_fetch0 150B  
                      __Umul8_16 15B3       __end_of_water_level_screen 09C9                      __pdataBANK0 006D  
                    __pdataBANK1 00A0       read_digital_keypad@pre_key 006C                    ??_init_config 0078  
                      ___fladd@a 0076                        ___fladd@b 0072                    ??_init_timer2 0072  
                      ___flmul@a 002A                        ___flmul@b 0026                      __pbssCOMMON 007A  
                      ___flsub@a 0040                        ___flsub@b 0044                        ___latbits 0002  
                  __pcstackBANK0 0020             power_on_screen@i_172 0027                         ?___fladd 0072  
                       ?___awdiv 0072                         ?___awmod 0072                         ?___flmul 0026  
                       ?___flsub 0040                         ?___fltol 0040                       ?__Umul8_16 0072  
                      __pstrings 0800                        _init_clcd 14DC              __end_of_init_config 154D  
              ??_power_on_screen 0023              __end_of_init_timer2 14DC                  _washing_program 00A0  
       ?_init_display_controller 0070                interrupt_function 0004                     ??_clcd_print 0078  
                   ??_clcd_putch 007A                     ??_clcd_write 0073                        _wash_time 0067  
                      _spin_time 0065                      __stringbase 0812                        main@delay 0061  
             __end_of_clcd_print 0845               __end_of_clcd_putch 1533               __end_of_clcd_write 156D  
                     ?_init_clcd 0070              _init_digital_keypad 14CD                      ??__Umul8_16 0074  
           ?_init_digital_keypad 0070               __end_of__stringtab 0812                      _init_config 1533  
                       ___xxtofl 0746                 _operational_mode 006E                      _init_timer2 14D3  
                  ??_run_program 0054                         __ptext10 0DB0                         __ptext11 0404  
                       __ptext20 0812                         __ptext12 15B3                         __ptext21 1533  
                       __ptext13 09C9                         __ptext22 14D3                         __ptext14 14F8  
                       __ptext23 14CD                         __ptext15 1680                         __ptext24 14DC  
                       __ptext16 1735                         __ptext25 1629                         __ptext17 0845  
                       __ptext26 154D                         __ptext18 1798                         __ptext27 15DC  
                       __ptext19 151E          read_digital_keypad@mode 0073          read_digital_keypad@once 007B  
                  ?_clear_screen 0070                         _set_time 0C6F            ??_init_digital_keypad 0072  
              _door_status_check 16D7               ?_door_status_check 0070                         isr@count 00C2  
            ??_door_status_check 0078                         init_ram0 150F               _water_level_screen 0929  
                    ??_init_clcd 0078                         intlevel1 0000              ?_water_level_screen 0070  
            __end_of_run_program 0404                        stringcode 080A                   ??_clear_screen 0076  
      __end_of_door_status_check 1735              _read_digital_keypad 0845             ??_water_level_screen 0078  
        _washing_program_display 0B6A           __Umul8_16@multiplicand 0072                  _power_on_screen 1798  
                       stringtab 0800                    ___fladd@signs 0028             ?_read_digital_keypad 0070  
               power_on_screen@i 0026                      _water_level 00B8                     ___fladd@aexp 0029  
                   ___fladd@bexp 002A             __Umul8_16@multiplier 0024                __Umul8_16@product 0020  
